 oracle_bindings

 Timestamp is 5a1bb9d9 (Mon Nov 27 02:08:09 2017)

 Preferred load address is 0000000180000000

 Start         Length     Name                   Class
 0001:00000000 0000a994H .text$mn                CODE
 0001:0000a9a0 0000023bH .text$x                 CODE
 0002:00000000 00000200H .idata$5                DATA
 0002:00000200 00000008H .CRT$XCA                DATA
 0002:00000208 00000008H .CRT$XCZ                DATA
 0002:00000210 00000008H .CRT$XIA                DATA
 0002:00000218 00000020H .CRT$XIC                DATA
 0002:00000238 00000008H .CRT$XIZ                DATA
 0002:00000240 00000008H .CRT$XPA                DATA
 0002:00000248 00000010H .CRT$XPX                DATA
 0002:00000258 00000008H .CRT$XPXA               DATA
 0002:00000260 00000008H .CRT$XPZ                DATA
 0002:00000268 00000008H .CRT$XTA                DATA
 0002:00000270 00000008H .CRT$XTZ                DATA
 0002:00000280 000050d0H .rdata                  DATA
 0002:00005350 000000a0H .rdata$debug            DATA
 0002:000053f0 00000008H .rtc$IAA                DATA
 0002:000053f8 00000008H .rtc$IZZ                DATA
 0002:00005400 00000008H .rtc$TAA                DATA
 0002:00005408 00000008H .rtc$TZZ                DATA
 0002:00005410 00000830H .xdata                  DATA
 0002:00005c40 00000000H .edata                  DATA
 0002:00005c40 00000014H .idata$2                DATA
 0002:00005c54 00000014H .idata$3                DATA
 0002:00005c68 00000200H .idata$4                DATA
 0002:00005e68 000004a6H .idata$6                DATA
 0003:00000000 0000159cH .data                   DATA
 0003:000015a0 000023d8H .bss                    DATA
 0004:00000000 000008acH .pdata                  DATA
 0005:00000000 00000058H .rsrc$01                DATA
 0005:00000060 00000180H .rsrc$02                DATA

  Address         Publics by Value              Rva+Base               Lib:Object

 0000:00000000       __guard_fids_count         0000000000000000     <absolute>
 0000:00000000       __guard_flags              0000000000000000     <absolute>
 0000:00000000       __guard_fids_table         0000000000000000     <absolute>
 0000:00000000       ___safe_se_handler_count   0000000000000000     <absolute>
 0000:00000000       ___safe_se_handler_table   0000000000000000     <absolute>
 0000:00000000       __ImageBase                0000000180000000     <linker-defined>
 0001:00000010       __security_check_cookie    0000000180001010 f   LIBCMT:amdsecgs.obj
 0001:00000030       ??0_LocaleUpdate@@QEAA@PEAUlocaleinfo_struct@@@Z 0000000180001030 f i LIBCMT:stricmp.obj
 0001:000000d8       _CRT_INIT                  00000001800010d8 f   LIBCMT:dllcrt0.obj
 0001:00000238       _DllMainCRTStartup         0000000180001238 f   LIBCMT:dllcrt0.obj
 0001:00000398       __raise_securityfailure    0000000180001398 f   LIBCMT:gs_report.obj
 0001:000003e4       __report_gsfailure         00000001800013e4 f   LIBCMT:gs_report.obj
 0001:000004b8       _call_reportfault          00000001800014b8 f   LIBCMT:invarg.obj
 0001:000005ac       _initp_misc_invarg         00000001800015ac f   LIBCMT:invarg.obj
 0001:000005b4       _invalid_parameter         00000001800015b4 f   LIBCMT:invarg.obj
 0001:0000061c       _invalid_parameter_noinfo  000000018000161c f   LIBCMT:invarg.obj
 0001:0000063c       _invoke_watson             000000018000163c f   LIBCMT:invarg.obj
 0001:00000678       __addlocaleref             0000000180001678 f   LIBCMT:localref.obj
 0001:00000704       __freetlocinfo             0000000180001704 f   LIBCMT:localref.obj
 0001:0000089c       __removelocaleref          000000018000189c f   LIBCMT:localref.obj
 0001:00000940       __updatetlocinfo           0000000180001940 f   LIBCMT:localref.obj
 0001:000009b8       _updatetlocinfoEx_nolock   00000001800019b8 f   LIBCMT:localref.obj
 0001:00000a1c       __initmbctable             0000000180001a1c f   LIBCMT:mbctype.obj
 0001:00000d38       __updatetmbcinfo           0000000180001d38 f   LIBCMT:mbctype.obj
 0001:00000df4       _setmbcp                   0000000180001df4 f   LIBCMT:mbctype.obj
 0001:00001038       _setmbcp_nolock            0000000180002038 f   LIBCMT:mbctype.obj
 0001:000012e8       _tolower_l                 00000001800022e8 f   LIBCMT:tolower.obj
 0001:0000143c       tolower                    000000018000243c f   LIBCMT:tolower.obj
 0001:0000145c       _freefls                   000000018000245c f   LIBCMT:tidtable.obj
 0001:00001590       _freeptd                   0000000180002590 f   LIBCMT:tidtable.obj
 0001:000015cc       _getptd                    00000001800025cc f   LIBCMT:tidtable.obj
 0001:000015f0       _getptd_noexit             00000001800025f0 f   LIBCMT:tidtable.obj
 0001:00001674       _initptd                   0000000180002674 f   LIBCMT:tidtable.obj
 0001:00001738       _mtinit                    0000000180002738 f   LIBCMT:tidtable.obj
 0001:000017b8       _mtterm                    00000001800027b8 f   LIBCMT:tidtable.obj
 0001:000017dc       __doserrno                 00000001800027dc f   LIBCMT:dosmap.obj
 0001:000017fc       _dosmaperr                 00000001800027fc f   LIBCMT:dosmap.obj
 0001:0000184c       _errno                     000000018000284c f   LIBCMT:dosmap.obj
 0001:0000186c       _get_errno_from_oserr      000000018000286c f   LIBCMT:dosmap.obj
 0001:000018bc       _locterm                   00000001800028bc f   LIBCMT:wsetloca.obj
 0001:00001904       _XcptFilter                0000000180002904 f   LIBCMT:winxfltr.obj
 0001:00001ad0       __CppXcptFilter            0000000180002ad0 f   LIBCMT:winxfltr.obj
 0001:00001ae4       __crtCorExitProcess        0000000180002ae4 f   LIBCMT:crt0dat.obj
 0001:00001b28       __crtExitProcess           0000000180002b28 f   LIBCMT:crt0dat.obj
 0001:00001b40       __freeCrtMemory            0000000180002b40 f   LIBCMT:crt0dat.obj
 0001:00001c88       _amsg_exit                 0000000180002c88 f   LIBCMT:crt0dat.obj
 0001:00001cb0       _cexit                     0000000180002cb0 f   LIBCMT:crt0dat.obj
 0001:00001cc0       _cinit                     0000000180002cc0 f   LIBCMT:crt0dat.obj
 0001:00001d58       _exit                      0000000180002d58 f   LIBCMT:crt0dat.obj
 0001:00001d64       _init_pointers             0000000180002d64 f   LIBCMT:crt0dat.obj
 0001:00001e10       _initterm_e                0000000180002e10 f   LIBCMT:crt0dat.obj
 0001:00001e4c       _lockexit                  0000000180002e4c f   LIBCMT:crt0dat.obj
 0001:00001e58       _unlockexit                0000000180002e58 f   LIBCMT:crt0dat.obj
 0001:00001ffc       _heap_init                 0000000180002ffc f   LIBCMT:heapinit.obj
 0001:0000201c       _heap_term                 000000018000301c f   LIBCMT:heapinit.obj
 0001:00002028       _ioinit                    0000000180003028 f   LIBCMT:ioinit.obj
 0001:00002358       _ioterm                    0000000180003358 f   LIBCMT:ioinit.obj
 0001:000023cc       _setargv                   00000001800033cc f   LIBCMT:stdargv.obj
 0001:00002688       _setenvp                   0000000180003688 f   LIBCMT:stdenvp.obj
 0001:000027bc       free                       00000001800037bc f   LIBCMT:free.obj
 0001:000027fc       __security_init_cookie     00000001800037fc f   LIBCMT:gs_support.obj
 0001:000028a8       DllMain                    00000001800038a8 f   LIBCMT:dllmain.obj
 0001:000028b0       __crtGetEnvironmentStringsA 00000001800038b0 f   LIBCMT:a_env.obj
 0001:000029a4       __crtCaptureCurrentContext 00000001800039a4 f   LIBCMT:winapisupp.obj
 0001:00002a14       __crtCapturePreviousContext 0000000180003a14 f   LIBCMT:winapisupp.obj
 0001:00002a88       __crtFlsAlloc              0000000180003a88 f   LIBCMT:winapisupp.obj
 0001:00002aa4       __crtFlsFree               0000000180003aa4 f   LIBCMT:winapisupp.obj
 0001:00002ac0       __crtFlsGetValue           0000000180003ac0 f   LIBCMT:winapisupp.obj
 0001:00002adc       __crtFlsSetValue           0000000180003adc f   LIBCMT:winapisupp.obj
 0001:00002af8       __crtInitializeCriticalSectionEx 0000000180003af8 f   LIBCMT:winapisupp.obj
 0001:00002b24       __crtIsPackagedApp         0000000180003b24 f   LIBCMT:winapisupp.obj
 0001:00002b70       __crtLoadWinApiPointers    0000000180003b70 f   LIBCMT:winapisupp.obj
 0001:00002f6c       __crtSleep                 0000000180003f6c f   LIBCMT:winapisupp.obj
 0001:00002f74       __crtTerminateProcess      0000000180003f74 f   LIBCMT:winapisupp.obj
 0001:00002f94       __crtUnhandledException    0000000180003f94 f   LIBCMT:winapisupp.obj
 0001:00002fb4       _calloc_crt                0000000180003fb4 f   LIBCMT:crtheap.obj
 0001:00003034       _malloc_crt                0000000180004034 f   LIBCMT:crtheap.obj
 0001:000030b0       _realloc_crt               00000001800040b0 f   LIBCMT:crtheap.obj
 0001:00003134       _RTC_Initialize            0000000180004134 f   LIBCMT:initsect.obj
 0001:0000316c       _RTC_Terminate             000000018000416c f   LIBCMT:initsect.obj
 0001:000031a4       __C_specific_handler       00000001800041a4 f   LIBCMT:chandler.obj
 0001:00003388       __crt_debugger_hook        0000000180004388 f   LIBCMT:dbghook.obj
 0001:00003390       __GSHandlerCheck           0000000180004390 f   LIBCMT:gshandler.obj
 0001:000033b0       __GSHandlerCheckCommon     00000001800043b0 f   LIBCMT:gshandler.obj
 0001:00003430       memset                     0000000180004430 f   LIBCMT:memset.obj
 0001:0000365c       _lock                      000000018000465c f   LIBCMT:mlock.obj
 0001:000036a0       _mtdeletelocks             00000001800046a0 f   LIBCMT:mlock.obj
 0001:00003728       _mtinitlocknum             0000000180004728 f   LIBCMT:mlock.obj
 0001:000037e8       _mtinitlocks               00000001800047e8 f   LIBCMT:mlock.obj
 0001:0000384c       _unlock                    000000018000484c f   LIBCMT:mlock.obj
 0001:00003864       __free_lconv_mon           0000000180004864 f   LIBCMT:initmon.obj
 0001:00003970       __free_lconv_num           0000000180004970 f   LIBCMT:initnum.obj
 0001:000039dc       __free_lc_time             00000001800049dc f   LIBCMT:inittime.obj
 0001:000040c4       __crtLCMapStringA          00000001800050c4 f   LIBCMT:a_map.obj
 0001:000042d4       __crtGetStringTypeA        00000001800052d4 f   LIBCMT:a_str.obj
 0001:00004350       _isctype_l                 0000000180005350 f   LIBCMT:isctype.obj
 0001:0000442c       _isleadbyte_l              000000018000542c f i LIBCMT:_wctype.obj
 0001:00004470       isleadbyte                 0000000180005470 f i LIBCMT:_wctype.obj
 0001:000044d0       memcmp                     00000001800054d0 f   LIBCMT:memcmp.obj
 0001:000045b0       memmove                    00000001800055b0 f   LIBCMT:memcpy.obj
 0001:000045b0       memcpy                     00000001800055b0 f   LIBCMT:memcpy.obj
 0001:00004b18       wcscat_s                   0000000180005b18 f   LIBCMT:wcscat_s.obj
 0001:00004ba0       wcscpy_s                   0000000180005ba0 f   LIBCMT:wcscpy_s.obj
 0001:00004c0c       wcslen                     0000000180005c0c f   LIBCMT:wcslen.obj
 0001:00004c28       wcsncpy_s                  0000000180005c28 f   LIBCMT:wcsncpy_s.obj
 0001:00004cf4       GetTableIndexFromLocaleName 0000000180005cf4 f   LIBCMT:winapinls.obj
 0001:00004d80       __crtDownlevelLocaleNameToLCID 0000000180005d80 f   LIBCMT:winapinls.obj
 0001:00004db4       __crtLCMapStringEx         0000000180005db4 f   LIBCMT:winapinls.obj
 0001:00004e44       __wcsnicmp_ascii           0000000180005e44 f   LIBCMT:winapinls.obj
 0001:00004e9c       _FF_MSGBANNER              0000000180005e9c f   LIBCMT:crt0msg.obj
 0001:00004ee0       _GET_RTERRMSG              0000000180005ee0 f   LIBCMT:crt0msg.obj
 0001:00004f10       _NMSG_WRITE                0000000180005f10 f   LIBCMT:crt0msg.obj
 0001:00005180       _FindPESection             0000000180006180 f   LIBCMT:pesect.obj
 0001:000051d0       _IsNonwritableInCurrentImage 00000001800061d0 f   LIBCMT:pesect.obj
 0001:00005220       _ValidateImageBase         0000000180006220 f   LIBCMT:pesect.obj
 0001:00005250       __onexitinit               0000000180006250 f   LIBCMT:onexit.obj
 0001:00005294       _onexit                    0000000180006294 f   LIBCMT:onexit.obj
 0001:000053a0       atexit                     00000001800063a0 f   LIBCMT:onexit.obj
 0001:000053b8       _initp_misc_cfltcvt_tab    00000001800063b8 f   LIBCMT:cmiscdat.obj
 0001:000053f4       ?terminate@@YAXXZ          00000001800063f4 f   LIBCMT:hooks.obj
 0001:00005414       _initp_eh_hooks            0000000180006414 f   LIBCMT:hooks.obj
 0001:00005434       _callnewh                  0000000180006434 f   LIBCMT:handler.obj
 0001:00005468       _initp_heap_handler        0000000180006468 f   LIBCMT:handler.obj
 0001:00005470       _initp_misc_purevirt       0000000180006470 f   LIBCMT:inithelp.obj
 0001:00005478       __get_sigabrt              0000000180006478 f   LIBCMT:winsig.obj
 0001:00005488       _initp_misc_winsig         0000000180006488 f   LIBCMT:winsig.obj
 0001:000054a8       raise                      00000001800064a8 f   LIBCMT:winsig.obj
 0001:000056dc       _initp_misc_rand_s         00000001800066dc f   LIBCMT:rand_s.obj
 0001:00005700       _local_unwind              0000000180006700 f   LIBCMT:jmpuwind.obj
 0001:00005730       _NLG_Notify                0000000180006730 f   LIBCMT:jmpuwind.obj
 0001:00005750       __NLG_Dispatch2            0000000180006750 f   LIBCMT:jmpuwind.obj
 0001:00005760       __NLG_Return2              0000000180006760 f   LIBCMT:jmpuwind.obj
 0001:00005764       __initstdio                0000000180006764 f   LIBCMT:_file.obj
 0001:000057fc       __endstdio                 00000001800067fc f   LIBCMT:_file.obj
 0001:0000582c       _lock_file                 000000018000682c f   LIBCMT:_file.obj
 0001:00005894       _lock_file2                0000000180006894 f   LIBCMT:_file.obj
 0001:000058c8       _unlock_file               00000001800068c8 f   LIBCMT:_file.obj
 0001:00005918       _unlock_file2              0000000180006918 f   LIBCMT:_file.obj
 0001:000059b4       _ismbblead                 00000001800069b4 f   LIBCMT:ismbbyte.obj
 0001:000059c8       strcpy_s                   00000001800069c8 f   LIBCMT:strcpy_s.obj
 0001:00005a40       strlen                     0000000180006a40 f   LIBCMT:strlen.obj
 0001:00005ae8       malloc                     0000000180006ae8 f   LIBCMT:malloc.obj
 0001:00005ba0       realloc                    0000000180006ba0 f   LIBCMT:realloc.obj
 0001:00005c74       _calloc_impl               0000000180006c74 f   LIBCMT:calloc_impl.obj
 0001:00005d10       __isa_available_init       0000000180006d10 f   LIBCMT:cpu_disp.obj
 0001:00005ed0       __chkstk                   0000000180006ed0 f   LIBCMT:chkstk.obj
 0001:00005ed0       _alloca_probe              0000000180006ed0 f   LIBCMT:chkstk.obj
 0001:00005f20       _set_error_mode            0000000180006f20 f   LIBCMT:errmode.obj
 0001:00005f60       __crtMessageBoxW           0000000180006f60 f   LIBCMT:crtmboxw.obj
 0001:000061d4       _msize                     00000001800071d4 f   LIBCMT:msize.obj
 0001:00006210       _fptrap                    0000000180007210 f   LIBCMT:crt0fp.obj
 0001:0000621c       abort                      000000018000721c f   LIBCMT:abort.obj
 0001:00006274       _fileno                    0000000180007274 f   LIBCMT:fileno.obj
 0001:0000629c       _isatty                    000000018000729c f   LIBCMT:isatty.obj
 0001:000062fc       _fflush_nolock             00000001800072fc f   LIBCMT:fflush.obj
 0001:00006348       _flush                     0000000180007348 f   LIBCMT:fflush.obj
 0001:000063c4       _flushall                  00000001800073c4 f   LIBCMT:fflush.obj
 0001:000064b8       _fcloseall                 00000001800074b8 f   LIBCMT:closeall.obj
 0001:00006560       _commit                    0000000180007560 f   LIBCMT:commit.obj
 0001:00006638       _write                     0000000180007638 f   LIBCMT:write.obj
 0001:0000671c       _write_nolock              000000018000771c f   LIBCMT:write.obj
 0001:00006f10       _fclose_nolock             0000000180007f10 f   LIBCMT:fclose.obj
 0001:00006f8c       fclose                     0000000180007f8c f   LIBCMT:fclose.obj
 0001:00006ff4       __crt_atoflt_l             0000000180007ff4 f   LIBCMT:atodbl.obj
 0001:000070c4       _atodbl_l                  00000001800080c4 f   LIBCMT:atodbl.obj
 0001:0000718c       _atoflt_l                  000000018000818c f   LIBCMT:atodbl.obj
 0001:00007194       _fpmath                    0000000180008194 f   LIBCMT:fpinit.obj
 0001:0000719c       _cfltcvt_init              000000018000819c f   LIBCMT:fpinit.obj
 0001:00007224       __lock_fhandle             0000000180008224 f   LIBCMT:osfinfo.obj
 0001:000072bc       _free_osfhnd               00000001800082bc f   LIBCMT:osfinfo.obj
 0001:00007368       _get_osfhandle             0000000180008368 f   LIBCMT:osfinfo.obj
 0001:000073dc       _unlock_fhandle            00000001800083dc f   LIBCMT:osfinfo.obj
 0001:00007408       _lseeki64_nolock           0000000180008408 f   LIBCMT:lseeki64.obj
 0001:0000749c       _mbtowc_l                  000000018000849c f   LIBCMT:mbtowc.obj
 0001:000075f0       mbtowc                     00000001800085f0 f   LIBCMT:mbtowc.obj
 0001:000075f8       _putwch_nolock             00000001800085f8 f   LIBCMT:putwch.obj
 0001:00007654       _close                     0000000180008654 f   LIBCMT:close.obj
 0001:00007718       _close_nolock              0000000180008718 f   LIBCMT:close.obj
 0001:000077d4       _freebuf                   00000001800087d4 f   LIBCMT:_freebuf.obj
 0001:00007810       _ld12tod                   0000000180008810 f   LIBCMT:intrncvt.obj
 0001:00007dc8       _ld12tof                   0000000180008dc8 f   LIBCMT:intrncvt.obj
 0001:00008380       __strgtold12_l             0000000180009380 f   LIBCMT:strgtold.obj
 0001:00008be4       _cfltcvt                   0000000180009be4 f   LIBCMT:cvt.obj
 0001:00008c08       _cfltcvt_l                 0000000180009c08 f   LIBCMT:cvt.obj
 0001:00008c88       _cftoa_l                   0000000180009c88 f   LIBCMT:cvt.obj
 0001:00009234       _cftoe_l                   000000018000a234 f   LIBCMT:cvt.obj
 0001:00009490       _cftof_l                   000000018000a490 f   LIBCMT:cvt.obj
 0001:00009564       _cftog_l                   000000018000a564 f   LIBCMT:cvt.obj
 0001:00009698       _cropzeros                 000000018000a698 f   LIBCMT:cvt.obj
 0001:000096a0       _cropzeros_l               000000018000a6a0 f   LIBCMT:cvt.obj
 0001:00009738       _fassign                   000000018000a738 f   LIBCMT:cvt.obj
 0001:00009740       _fassign_l                 000000018000a740 f   LIBCMT:cvt.obj
 0001:00009780       _forcdecpt                 000000018000a780 f   LIBCMT:cvt.obj
 0001:00009788       _forcdecpt_l               000000018000a788 f   LIBCMT:cvt.obj
 0001:00009808       _positive                  000000018000a808 f   LIBCMT:cvt.obj
 0001:0000981c       __termconout               000000018000a81c f   LIBCMT:initcon.obj
 0001:0000983c       __initconout               000000018000a83c f   LIBCMT:initcon.obj
 0001:00009878       __mtold12                  000000018000a878 f   LIBCMT:mantold.obj
 0001:00009a9c       isdigit                    000000018000aa9c f i LIBCMT:_ctype.obj
 0001:00009b18       strrchr                    000000018000ab18 f   LIBCMT:strrchr.obj
 0001:00009c5c       _fptostr                   000000018000ac5c f   LIBCMT:_fptostr.obj
 0001:00009d28       __dtold                    000000018000ad28 f   LIBCMT:cfout.obj
 0001:00009df8       _fltout2                   000000018000adf8 f   LIBCMT:cfout.obj
 0001:00009eb0       $I10_OUTPUT                000000018000aeb0 f   LIBCMT:x10fout.obj
 0001:0000a988       IsProcessorFeaturePresent  000000018000b988 f   kernel32:KERNEL32.dll
 0001:0000a98e       RtlUnwindEx                000000018000b98e f   kernel32:KERNEL32.dll
 0002:00000000       __imp_GetCommandLineA      000000018000c000     kernel32:KERNEL32.dll
 0002:00000008       __imp_GetCurrentThreadId   000000018000c008     kernel32:KERNEL32.dll
 0002:00000010       __imp_IsDebuggerPresent    000000018000c010     kernel32:KERNEL32.dll
 0002:00000018       __imp_IsProcessorFeaturePresent 000000018000c018     kernel32:KERNEL32.dll
 0002:00000020       __imp_EncodePointer        000000018000c020     kernel32:KERNEL32.dll
 0002:00000028       __imp_DecodePointer        000000018000c028     kernel32:KERNEL32.dll
 0002:00000030       __imp_IsValidCodePage      000000018000c030     kernel32:KERNEL32.dll
 0002:00000038       __imp_GetACP               000000018000c038     kernel32:KERNEL32.dll
 0002:00000040       __imp_GetOEMCP             000000018000c040     kernel32:KERNEL32.dll
 0002:00000048       __imp_GetCPInfo            000000018000c048     kernel32:KERNEL32.dll
 0002:00000050       __imp_GetLastError         000000018000c050     kernel32:KERNEL32.dll
 0002:00000058       __imp_SetLastError         000000018000c058     kernel32:KERNEL32.dll
 0002:00000060       __imp_MultiByteToWideChar  000000018000c060     kernel32:KERNEL32.dll
 0002:00000068       __imp_ExitProcess          000000018000c068     kernel32:KERNEL32.dll
 0002:00000070       __imp_GetModuleHandleExW   000000018000c070     kernel32:KERNEL32.dll
 0002:00000078       __imp_GetProcAddress       000000018000c078     kernel32:KERNEL32.dll
 0002:00000080       __imp_WideCharToMultiByte  000000018000c080     kernel32:KERNEL32.dll
 0002:00000088       __imp_GetProcessHeap       000000018000c088     kernel32:KERNEL32.dll
 0002:00000090       __imp_GetStdHandle         000000018000c090     kernel32:KERNEL32.dll
 0002:00000098       __imp_GetFileType          000000018000c098     kernel32:KERNEL32.dll
 0002:000000a0       __imp_DeleteCriticalSection 000000018000c0a0     kernel32:KERNEL32.dll
 0002:000000a8       __imp_GetStartupInfoW      000000018000c0a8     kernel32:KERNEL32.dll
 0002:000000b0       __imp_GetModuleFileNameA   000000018000c0b0     kernel32:KERNEL32.dll
 0002:000000b8       __imp_HeapFree             000000018000c0b8     kernel32:KERNEL32.dll
 0002:000000c0       __imp_QueryPerformanceCounter 000000018000c0c0     kernel32:KERNEL32.dll
 0002:000000c8       __imp_GetCurrentProcessId  000000018000c0c8     kernel32:KERNEL32.dll
 0002:000000d0       __imp_GetSystemTimeAsFileTime 000000018000c0d0     kernel32:KERNEL32.dll
 0002:000000d8       __imp_GetEnvironmentStringsW 000000018000c0d8     kernel32:KERNEL32.dll
 0002:000000e0       __imp_FreeEnvironmentStringsW 000000018000c0e0     kernel32:KERNEL32.dll
 0002:000000e8       __imp_RtlCaptureContext    000000018000c0e8     kernel32:KERNEL32.dll
 0002:000000f0       __imp_RtlLookupFunctionEntry 000000018000c0f0     kernel32:KERNEL32.dll
 0002:000000f8       __imp_RtlVirtualUnwind     000000018000c0f8     kernel32:KERNEL32.dll
 0002:00000100       __imp_UnhandledExceptionFilter 000000018000c100     kernel32:KERNEL32.dll
 0002:00000108       __imp_SetUnhandledExceptionFilter 000000018000c108     kernel32:KERNEL32.dll
 0002:00000110       __imp_InitializeCriticalSectionAndSpinCount 000000018000c110     kernel32:KERNEL32.dll
 0002:00000118       __imp_Sleep                000000018000c118     kernel32:KERNEL32.dll
 0002:00000120       __imp_GetCurrentProcess    000000018000c120     kernel32:KERNEL32.dll
 0002:00000128       __imp_TerminateProcess     000000018000c128     kernel32:KERNEL32.dll
 0002:00000130       __imp_TlsAlloc             000000018000c130     kernel32:KERNEL32.dll
 0002:00000138       __imp_TlsGetValue          000000018000c138     kernel32:KERNEL32.dll
 0002:00000140       __imp_TlsSetValue          000000018000c140     kernel32:KERNEL32.dll
 0002:00000148       __imp_TlsFree              000000018000c148     kernel32:KERNEL32.dll
 0002:00000150       __imp_GetModuleHandleW     000000018000c150     kernel32:KERNEL32.dll
 0002:00000158       __imp_RtlUnwindEx          000000018000c158     kernel32:KERNEL32.dll
 0002:00000160       __imp_EnterCriticalSection 000000018000c160     kernel32:KERNEL32.dll
 0002:00000168       __imp_LeaveCriticalSection 000000018000c168     kernel32:KERNEL32.dll
 0002:00000170       __imp_GetStringTypeW       000000018000c170     kernel32:KERNEL32.dll
 0002:00000178       __imp_LCMapStringW         000000018000c178     kernel32:KERNEL32.dll
 0002:00000180       __imp_WriteFile            000000018000c180     kernel32:KERNEL32.dll
 0002:00000188       __imp_GetModuleFileNameW   000000018000c188     kernel32:KERNEL32.dll
 0002:00000190       __imp_LoadLibraryExW       000000018000c190     kernel32:KERNEL32.dll
 0002:00000198       __imp_HeapAlloc            000000018000c198     kernel32:KERNEL32.dll
 0002:000001a0       __imp_HeapReAlloc          000000018000c1a0     kernel32:KERNEL32.dll
 0002:000001a8       __imp_OutputDebugStringW   000000018000c1a8     kernel32:KERNEL32.dll
 0002:000001b0       __imp_HeapSize             000000018000c1b0     kernel32:KERNEL32.dll
 0002:000001b8       __imp_FlushFileBuffers     000000018000c1b8     kernel32:KERNEL32.dll
 0002:000001c0       __imp_GetConsoleCP         000000018000c1c0     kernel32:KERNEL32.dll
 0002:000001c8       __imp_GetConsoleMode       000000018000c1c8     kernel32:KERNEL32.dll
 0002:000001d0       __imp_SetStdHandle         000000018000c1d0     kernel32:KERNEL32.dll
 0002:000001d8       __imp_SetFilePointerEx     000000018000c1d8     kernel32:KERNEL32.dll
 0002:000001e0       __imp_WriteConsoleW        000000018000c1e0     kernel32:KERNEL32.dll
 0002:000001e8       __imp_CloseHandle          000000018000c1e8     kernel32:KERNEL32.dll
 0002:000001f0       __imp_CreateFileW          000000018000c1f0     kernel32:KERNEL32.dll
 0002:000001f8       \177KERNEL32_NULL_THUNK_DATA 000000018000c1f8     kernel32:KERNEL32.dll
 0002:00000200       __xc_a                     000000018000c200     LIBCMT:crt0init.obj
 0002:00000208       __xc_z                     000000018000c208     LIBCMT:crt0init.obj
 0002:00000210       __xi_a                     000000018000c210     LIBCMT:crt0init.obj
 0002:00000238       __xi_z                     000000018000c238     LIBCMT:crt0init.obj
 0002:00000240       __xp_a                     000000018000c240     LIBCMT:crt0init.obj
 0002:00000260       __xp_z                     000000018000c260     LIBCMT:crt0init.obj
 0002:00000268       __xt_a                     000000018000c268     LIBCMT:crt0init.obj
 0002:00000270       __xt_z                     000000018000c270     LIBCMT:crt0init.obj
 0002:000002b8       _pDefaultRawDllMain        000000018000c2b8     LIBCMT:dllcrt0.obj
 0002:000002b8       _pRawDllMain               000000018000c2b8     LIBCMT:dllcrt0.obj
 0002:000002f0       ??_C@_1M@HPNHIDJI@?$AAj?$AAa?$AA?9?$AAJ?$AAP?$AA?$AA@ 000000018000c2f0     LIBCMT:mbctype.obj
 0002:00000300       ??_C@_1M@BIBDDEMK@?$AAz?$AAh?$AA?9?$AAC?$AAN?$AA?$AA@ 000000018000c300     LIBCMT:mbctype.obj
 0002:00000310       ??_C@_1M@JLOOOEGK@?$AAk?$AAo?$AA?9?$AAK?$AAR?$AA?$AA@ 000000018000c310     LIBCMT:mbctype.obj
 0002:00000320       ??_C@_1M@CLNBBOPM@?$AAz?$AAh?$AA?9?$AAT?$AAW?$AA?$AA@ 000000018000c320     LIBCMT:mbctype.obj
 0002:0000032c       ??_C@_03KOEHGMDN@Sun?$AA@  000000018000c32c     LIBCMT:nlsdata.obj
 0002:00000330       ??_C@_03PDAGKDH@Mon?$AA@   000000018000c330     LIBCMT:nlsdata.obj
 0002:00000334       ??_C@_03NAGEINEP@Tue?$AA@  000000018000c334     LIBCMT:nlsdata.obj
 0002:00000338       ??_C@_03MHOMLAJA@Wed?$AA@  000000018000c338     LIBCMT:nlsdata.obj
 0002:0000033c       ??_C@_03IOFIKPDN@Thu?$AA@  000000018000c33c     LIBCMT:nlsdata.obj
 0002:00000340       ??_C@_03IDIOELNC@Fri?$AA@  000000018000c340     LIBCMT:nlsdata.obj
 0002:00000344       ??_C@_03FEFJNEK@Sat?$AA@   000000018000c344     LIBCMT:nlsdata.obj
 0002:00000348       ??_C@_06OOPIFAJ@Sunday?$AA@ 000000018000c348     LIBCMT:nlsdata.obj
 0002:00000350       ??_C@_06JLEDEDGH@Monday?$AA@ 000000018000c350     LIBCMT:nlsdata.obj
 0002:00000358       ??_C@_07BAAGCFCM@Tuesday?$AA@ 000000018000c358     LIBCMT:nlsdata.obj
 0002:00000360       ??_C@_09DLIGFAKA@Wednesday?$AA@ 000000018000c360     LIBCMT:nlsdata.obj
 0002:00000370       ??_C@_08HACCIKIA@Thursday?$AA@ 000000018000c370     LIBCMT:nlsdata.obj
 0002:0000037c       ??_C@_06JECMNKMI@Friday?$AA@ 000000018000c37c     LIBCMT:nlsdata.obj
 0002:00000388       ??_C@_08INBOOONO@Saturday?$AA@ 000000018000c388     LIBCMT:nlsdata.obj
 0002:00000394       ??_C@_03JIHJHPIE@Jan?$AA@  000000018000c394     LIBCMT:nlsdata.obj
 0002:00000398       ??_C@_03HJBDCHOM@Feb?$AA@  000000018000c398     LIBCMT:nlsdata.obj
 0002:0000039c       ??_C@_03ODNJBKGA@Mar?$AA@  000000018000c39c     LIBCMT:nlsdata.obj
 0002:000003a0       ??_C@_03LEOLGMJP@Apr?$AA@  000000018000c3a0     LIBCMT:nlsdata.obj
 0002:000003a4       ??_C@_03CNMDKL@May?$AA@    000000018000c3a4     LIBCMT:nlsdata.obj
 0002:000003a8       ??_C@_03IDFGHECI@Jun?$AA@  000000018000c3a8     LIBCMT:nlsdata.obj
 0002:000003ac       ??_C@_03LBGABGKK@Jul?$AA@  000000018000c3ac     LIBCMT:nlsdata.obj
 0002:000003b0       ??_C@_03IFJFEIGA@Aug?$AA@  000000018000c3b0     LIBCMT:nlsdata.obj
 0002:000003b4       ??_C@_03GGCAPAJC@Sep?$AA@  000000018000c3b4     LIBCMT:nlsdata.obj
 0002:000003b8       ??_C@_03BMAOKBAD@Oct?$AA@  000000018000c3b8     LIBCMT:nlsdata.obj
 0002:000003bc       ??_C@_03JPJOFNIA@Nov?$AA@  000000018000c3bc     LIBCMT:nlsdata.obj
 0002:000003c0       ??_C@_03MKABNOCG@Dec?$AA@  000000018000c3c0     LIBCMT:nlsdata.obj
 0002:000003c8       ??_C@_07CGJPFGJA@January?$AA@ 000000018000c3c8     LIBCMT:nlsdata.obj
 0002:000003d0       ??_C@_08GNJGEPFN@February?$AA@ 000000018000c3d0     LIBCMT:nlsdata.obj
 0002:000003dc       ??_C@_05HPCKOFNC@March?$AA@ 000000018000c3dc     LIBCMT:nlsdata.obj
 0002:000003e4       ??_C@_05DMJDNLEJ@April?$AA@ 000000018000c3e4     LIBCMT:nlsdata.obj
 0002:000003ec       ??_C@_04CNLMGBGM@June?$AA@ 000000018000c3ec     LIBCMT:nlsdata.obj
 0002:000003f4       ??_C@_04MIEPOIFP@July?$AA@ 000000018000c3f4     LIBCMT:nlsdata.obj
 0002:000003fc       ??_C@_06LBBHFDDG@August?$AA@ 000000018000c3fc     LIBCMT:nlsdata.obj
 0002:00000408       ??_C@_09BHHEALKD@September?$AA@ 000000018000c408     LIBCMT:nlsdata.obj
 0002:00000418       ??_C@_07JJNFCEND@October?$AA@ 000000018000c418     LIBCMT:nlsdata.obj
 0002:00000420       ??_C@_08HCHEGEOA@November?$AA@ 000000018000c420     LIBCMT:nlsdata.obj
 0002:00000430       ??_C@_08EDHMEBNP@December?$AA@ 000000018000c430     LIBCMT:nlsdata.obj
 0002:0000043c       ??_C@_02DEDBPAFC@AM?$AA@   000000018000c43c     LIBCMT:nlsdata.obj
 0002:00000440       ??_C@_02CJNFDJBF@PM?$AA@   000000018000c440     LIBCMT:nlsdata.obj
 0002:00000448       ??_C@_08BPBNCDIB@MM?1dd?1yy?$AA@ 000000018000c448     LIBCMT:nlsdata.obj
 0002:00000458       ??_C@_0BE@CKGJFCPC@dddd?0?5MMMM?5dd?0?5yyyy?$AA@ 000000018000c458     LIBCMT:nlsdata.obj
 0002:00000470       ??_C@_08JCCMCCIL@HH?3mm?3ss?$AA@ 000000018000c470     LIBCMT:nlsdata.obj
 0002:00000480       ??_C@_17MBGCMIPB@?$AAS?$AAu?$AAn?$AA?$AA@ 000000018000c480     LIBCMT:nlsdata.obj
 0002:00000488       ??_C@_17KBOMKBF@?$AAM?$AAo?$AAn?$AA?$AA@ 000000018000c488     LIBCMT:nlsdata.obj
 0002:00000490       ??_C@_17BMKGEGOJ@?$AAT?$AAu?$AAe?$AA?$AA@ 000000018000c490     LIBCMT:nlsdata.obj
 0002:00000498       ??_C@_17CJEDCEPE@?$AAW?$AAe?$AAd?$AA?$AA@ 000000018000c498     LIBCMT:nlsdata.obj
 0002:000004a0       ??_C@_17PDPHAADD@?$AAT?$AAh?$AAu?$AA?$AA@ 000000018000c4a0     LIBCMT:nlsdata.obj
 0002:000004a8       ??_C@_17HFOLPPLP@?$AAF?$AAr?$AAi?$AA?$AA@ 000000018000c4a8     LIBCMT:nlsdata.obj
 0002:000004b0       ??_C@_17GGIBDPIH@?$AAS?$AAa?$AAt?$AA?$AA@ 000000018000c4b0     LIBCMT:nlsdata.obj
 0002:000004b8       ??_C@_1O@IHNHDHPB@?$AAS?$AAu?$AAn?$AAd?$AAa?$AAy?$AA?$AA@ 000000018000c4b8     LIBCMT:nlsdata.obj
 0002:000004c8       ??_C@_1O@MMNBFLIA@?$AAM?$AAo?$AAn?$AAd?$AAa?$AAy?$AA?$AA@ 000000018000c4c8     LIBCMT:nlsdata.obj
 0002:000004d8       ??_C@_1BA@ENFBFFEK@?$AAT?$AAu?$AAe?$AAs?$AAd?$AAa?$AAy?$AA?$AA@ 000000018000c4d8     LIBCMT:nlsdata.obj
 0002:000004e8       ??_C@_1BE@EBOGMDOH@?$AAW?$AAe?$AAd?$AAn?$AAe?$AAs?$AAd?$AAa?$AAy?$AA?$AA@ 000000018000c4e8     LIBCMT:nlsdata.obj
 0002:00000500       ??_C@_1BC@HHMNLIHE@?$AAT?$AAh?$AAu?$AAr?$AAs?$AAd?$AAa?$AAy?$AA?$AA@ 000000018000c500     LIBCMT:nlsdata.obj
 0002:00000518       ??_C@_1O@PDICJHAG@?$AAF?$AAr?$AAi?$AAd?$AAa?$AAy?$AA?$AA@ 000000018000c518     LIBCMT:nlsdata.obj
 0002:00000528       ??_C@_1BC@ENMNNPAJ@?$AAS?$AAa?$AAt?$AAu?$AAr?$AAd?$AAa?$AAy?$AA?$AA@ 000000018000c528     LIBCMT:nlsdata.obj
 0002:00000540       ??_C@_17DKNBKCHM@?$AAJ?$AAa?$AAn?$AA?$AA@ 000000018000c540     LIBCMT:nlsdata.obj
 0002:00000548       ??_C@_17LMDJEKJN@?$AAF?$AAe?$AAb?$AA?$AA@ 000000018000c548     LIBCMT:nlsdata.obj
 0002:00000550       ??_C@_17CKNLEDEC@?$AAM?$AAa?$AAr?$AA?$AA@ 000000018000c550     LIBCMT:nlsdata.obj
 0002:00000558       ??_C@_17LFPOIHDD@?$AAA?$AAp?$AAr?$AA?$AA@ 000000018000c558     LIBCMT:nlsdata.obj
 0002:00000560       ??_C@_17PNNKMEED@?$AAM?$AAa?$AAy?$AA?$AA@ 000000018000c560     LIBCMT:nlsdata.obj
 0002:00000568       ??_C@_17KCJGOCPB@?$AAJ?$AAu?$AAn?$AA?$AA@ 000000018000c568     LIBCMT:nlsdata.obj
 0002:00000570       ??_C@_17IJPCKHK@?$AAJ?$AAu?$AAl?$AA?$AA@ 000000018000c570     LIBCMT:nlsdata.obj
 0002:00000578       ??_C@_17ICPELBCN@?$AAA?$AAu?$AAg?$AA?$AA@ 000000018000c578     LIBCMT:nlsdata.obj
 0002:00000580       ??_C@_17HCHCOKMG@?$AAS?$AAe?$AAp?$AA?$AA@ 000000018000c580     LIBCMT:nlsdata.obj
 0002:00000588       ??_C@_17FNLKOI@?$AAO?$AAc?$AAt?$AA?$AA@ 000000018000c588     LIBCMT:nlsdata.obj
 0002:00000590       ??_C@_17BBDMLCIG@?$AAN?$AAo?$AAv?$AA?$AA@ 000000018000c590     LIBCMT:nlsdata.obj
 0002:00000598       ??_C@_17EGKACKIF@?$AAD?$AAe?$AAc?$AA?$AA@ 000000018000c598     LIBCMT:nlsdata.obj
 0002:000005a0       ??_C@_1BA@EFMEIEBA@?$AAJ?$AAa?$AAn?$AAu?$AAa?$AAr?$AAy?$AA?$AA@ 000000018000c5a0     LIBCMT:nlsdata.obj
 0002:000005b0       ??_C@_1BC@JGDDFFAM@?$AAF?$AAe?$AAb?$AAr?$AAu?$AAa?$AAr?$AAy?$AA?$AA@ 000000018000c5b0     LIBCMT:nlsdata.obj
 0002:000005c8       ??_C@_1M@IKEENEDF@?$AAM?$AAa?$AAr?$AAc?$AAh?$AA?$AA@ 000000018000c5c8     LIBCMT:nlsdata.obj
 0002:000005d8       ??_C@_1M@GJNLMHFD@?$AAA?$AAp?$AAr?$AAi?$AAl?$AA?$AA@ 000000018000c5d8     LIBCMT:nlsdata.obj
 0002:000005e8       ??_C@_19EPFLPGAP@?$AAJ?$AAu?$AAn?$AAe?$AA?$AA@ 000000018000c5e8     LIBCMT:nlsdata.obj
 0002:000005f8       ??_C@_19BIFMLPCD@?$AAJ?$AAu?$AAl?$AAy?$AA?$AA@ 000000018000c5f8     LIBCMT:nlsdata.obj
 0002:00000608       ??_C@_1O@PAHLKOAC@?$AAA?$AAu?$AAg?$AAu?$AAs?$AAt?$AA?$AA@ 000000018000c608     LIBCMT:nlsdata.obj
 0002:00000618       ??_C@_1BE@DKAAMBJL@?$AAS?$AAe?$AAp?$AAt?$AAe?$AAm?$AAb?$AAe?$AAr?$AA?$AA@ 000000018000c618     LIBCMT:nlsdata.obj
 0002:00000630       ??_C@_1BA@EPANDLNG@?$AAO?$AAc?$AAt?$AAo?$AAb?$AAe?$AAr?$AA?$AA@ 000000018000c630     LIBCMT:nlsdata.obj
 0002:00000640       ??_C@_1BC@BGLIFPF@?$AAN?$AAo?$AAv?$AAe?$AAm?$AAb?$AAe?$AAr?$AA?$AA@ 000000018000c640     LIBCMT:nlsdata.obj
 0002:00000658       ??_C@_1BC@FEMKIFH@?$AAD?$AAe?$AAc?$AAe?$AAm?$AAb?$AAe?$AAr?$AA?$AA@ 000000018000c658     LIBCMT:nlsdata.obj
 0002:0000066c       ??_C@_15ODEHAHHF@?$AAA?$AAM?$AA?$AA@ 000000018000c66c     LIBCMT:nlsdata.obj
 0002:00000674       ??_C@_15CLMNNGEL@?$AAP?$AAM?$AA?$AA@ 000000018000c674     LIBCMT:nlsdata.obj
 0002:00000680       ??_C@_1BC@IEBCMHCM@?$AAM?$AAM?$AA?1?$AAd?$AAd?$AA?1?$AAy?$AAy?$AA?$AA@ 000000018000c680     LIBCMT:nlsdata.obj
 0002:00000698       ??_C@_1CI@KNAKOEBC@?$AAd?$AAd?$AAd?$AAd?$AA?0?$AA?5?$AAM?$AAM?$AAM?$AAM?$AA?5?$AAd?$AAd?$AA?0?$AA?5?$AAy?$AAy?$AAy?$AAy?$AA?$AA@ 000000018000c698     LIBCMT:nlsdata.obj
 0002:000006c0       ??_C@_1BC@GDGBMEMK@?$AAH?$AAH?$AA?3?$AAm?$AAm?$AA?3?$AAs?$AAs?$AA?$AA@ 000000018000c6c0     LIBCMT:nlsdata.obj
 0002:000006d8       ??_C@_1M@BMHNFIME@?$AAe?$AAn?$AA?9?$AAU?$AAS?$AA?$AA@ 000000018000c6d8     LIBCMT:nlsdata.obj
 0002:00000770       _XcptActTab                000000018000c770     LIBCMT:winxfltr.obj
 0002:00000830       _XcptActTabCount           000000018000c830     LIBCMT:winxfltr.obj
 0002:00000834       _XcptActTabSize            000000018000c834     LIBCMT:winxfltr.obj
 0002:00000838       _First_FPE_Indx            000000018000c838     LIBCMT:winxfltr.obj
 0002:0000083c       _Num_FPE                   000000018000c83c     LIBCMT:winxfltr.obj
 0002:00000840       ??_C@_1BI@BGOHAHKC@?$AAm?$AAs?$AAc?$AAo?$AAr?$AAe?$AAe?$AA?4?$AAd?$AAl?$AAl?$AA?$AA@ 000000018000c840     LIBCMT:crt0dat.obj
 0002:00000858       ??_C@_0P@MIGLKIOC@CorExitProcess?$AA@ 000000018000c858     LIBCMT:crt0dat.obj
 0002:00000868       ??_C@_1BK@MGMFAEKH@?$AAk?$AAe?$AAr?$AAn?$AAe?$AAl?$AA3?$AA2?$AA?4?$AAd?$AAl?$AAl?$AA?$AA@ 000000018000c868     LIBCMT:winapisupp.obj
 0002:00000888       ??_C@_08KNHFBNJ@FlsAlloc?$AA@ 000000018000c888     LIBCMT:winapisupp.obj
 0002:00000898       ??_C@_07PEJMOBNF@FlsFree?$AA@ 000000018000c898     LIBCMT:winapisupp.obj
 0002:000008a0       ??_C@_0M@GDNOONDI@FlsGetValue?$AA@ 000000018000c8a0     LIBCMT:winapisupp.obj
 0002:000008b0       ??_C@_0M@JCPCPOEF@FlsSetValue?$AA@ 000000018000c8b0     LIBCMT:winapisupp.obj
 0002:000008c0       ??_C@_0BM@HCFOFFN@InitializeCriticalSectionEx?$AA@ 000000018000c8c0     LIBCMT:winapisupp.obj
 0002:000008e0       ??_C@_0P@DLHPPCNH@CreateEventExW?$AA@ 000000018000c8e0     LIBCMT:winapisupp.obj
 0002:000008f0       ??_C@_0BD@KIEEOEEH@CreateSemaphoreExW?$AA@ 000000018000c8f0     LIBCMT:winapisupp.obj
 0002:00000908       ??_C@_0BI@BKLFFAPO@SetThreadStackGuarantee?$AA@ 000000018000c908     LIBCMT:winapisupp.obj
 0002:00000920       ??_C@_0BG@OGFAJCKC@CreateThreadpoolTimer?$AA@ 000000018000c920     LIBCMT:winapisupp.obj
 0002:00000938       ??_C@_0BD@LPLEMMDI@SetThreadpoolTimer?$AA@ 000000018000c938     LIBCMT:winapisupp.obj
 0002:00000950       ??_C@_0CA@FMNJENH@WaitForThreadpoolTimerCallbacks?$AA@ 000000018000c950     LIBCMT:winapisupp.obj
 0002:00000970       ??_C@_0BF@DCFCCNOC@CloseThreadpoolTimer?$AA@ 000000018000c970     LIBCMT:winapisupp.obj
 0002:00000988       ??_C@_0BF@FLABGKKM@CreateThreadpoolWait?$AA@ 000000018000c988     LIBCMT:winapisupp.obj
 0002:000009a0       ??_C@_0BC@MGCOHNA@SetThreadpoolWait?$AA@ 000000018000c9a0     LIBCMT:winapisupp.obj
 0002:000009b8       ??_C@_0BE@OCIOMIMP@CloseThreadpoolWait?$AA@ 000000018000c9b8     LIBCMT:winapisupp.obj
 0002:000009d0       ??_C@_0BJ@LKGHFHBO@FlushProcessWriteBuffers?$AA@ 000000018000c9d0     LIBCMT:winapisupp.obj
 0002:000009f0       ??_C@_0BP@KALKKPMO@FreeLibraryWhenCallbackReturns?$AA@ 000000018000c9f0     LIBCMT:winapisupp.obj
 0002:00000a10       ??_C@_0BK@DFNBACLA@GetCurrentProcessorNumber?$AA@ 000000018000ca10     LIBCMT:winapisupp.obj
 0002:00000a30       ??_C@_0BP@KHGALBC@GetLogicalProcessorInformation?$AA@ 000000018000ca30     LIBCMT:winapisupp.obj
 0002:00000a50       ??_C@_0BE@FKKLLFLM@CreateSymbolicLinkW?$AA@ 000000018000ca50     LIBCMT:winapisupp.obj
 0002:00000a68       ??_C@_0BJ@OHNKDLIJ@SetDefaultDllDirectories?$AA@ 000000018000ca68     LIBCMT:winapisupp.obj
 0002:00000a88       ??_C@_0BE@LJANKFHF@EnumSystemLocalesEx?$AA@ 000000018000ca88     LIBCMT:winapisupp.obj
 0002:00000aa0       ??_C@_0BA@IHGNDAEB@CompareStringEx?$AA@ 000000018000caa0     LIBCMT:winapisupp.obj
 0002:00000ab0       ??_C@_0BA@EPCJIIPD@GetDateFormatEx?$AA@ 000000018000cab0     LIBCMT:winapisupp.obj
 0002:00000ac0       ??_C@_0BA@ONOKGCMP@GetLocaleInfoEx?$AA@ 000000018000cac0     LIBCMT:winapisupp.obj
 0002:00000ad0       ??_C@_0BA@CIJJKCJJ@GetTimeFormatEx?$AA@ 000000018000cad0     LIBCMT:winapisupp.obj
 0002:00000ae0       ??_C@_0BJ@PBCCBIPI@GetUserDefaultLocaleName?$AA@ 000000018000cae0     LIBCMT:winapisupp.obj
 0002:00000b00       ??_C@_0BC@CELBKLLA@IsValidLocaleName?$AA@ 000000018000cb00     LIBCMT:winapisupp.obj
 0002:00000b18       ??_C@_0O@KKBNKAPF@LCMapStringEx?$AA@ 000000018000cb18     LIBCMT:winapisupp.obj
 0002:00000b28       ??_C@_0BE@JOGNEJCI@GetCurrentPackageId?$AA@ 000000018000cb28     LIBCMT:winapisupp.obj
 0002:00000b40       ??_C@_0P@CDHHOHKP@GetTickCount64?$AA@ 000000018000cb40     LIBCMT:winapisupp.obj
 0002:00000b50       ??_C@_0BO@KPCLFDJJ@GetFileInformationByHandleExW?$AA@ 000000018000cb50     LIBCMT:winapisupp.obj
 0002:00000b70       ??_C@_0BM@MHIDLABK@SetFileInformationByHandleW?$AA@ 000000018000cb70     LIBCMT:winapisupp.obj
 0002:00000b90       __newctype                 000000018000cb90     LIBCMT:ctype.obj
 0002:00000e90       _wctype                    000000018000ce90     LIBCMT:ctype.obj
 0002:000010a0       __newclmap                 000000018000d0a0     LIBCMT:ctype.obj
 0002:00001220       __newcumap                 000000018000d220     LIBCMT:ctype.obj
 0002:000013a0       ??_C@_15PJPFLCCM@?$AAu?$AAk?$AA?$AA@ 000000018000d3a0     LIBCMT:getqloc.obj
 0002:000013a8       __rg_language_count        000000018000d3a8     LIBCMT:getqloc.obj
 0002:000013ac       __rg_country_count         000000018000d3ac     LIBCMT:getqloc.obj
 0002:000013b0       LcidToLocaleNameTable      000000018000d3b0     LIBCMT:winapinls.obj
 0002:000021f0       LocaleNameToIndexTable     000000018000e1f0     LIBCMT:winapinls.obj
 0002:00003030       ??_C@_15EMKDOKLE@?$AAa?$AAr?$AA?$AA@ 000000018000f030     LIBCMT:winapinls.obj
 0002:00003038       ??_C@_15KNPADPLH@?$AAb?$AAg?$AA?$AA@ 000000018000f038     LIBCMT:winapinls.obj
 0002:00003040       ??_C@_15EDMHLDMO@?$AAc?$AAa?$AA?$AA@ 000000018000f040     LIBCMT:winapinls.obj
 0002:00003048       ??_C@_1O@BPEAJADD@?$AAz?$AAh?$AA?9?$AAC?$AAH?$AAS?$AA?$AA@ 000000018000f048     LIBCMT:winapinls.obj
 0002:00003058       ??_C@_15LJNHCMNK@?$AAc?$AAs?$AA?$AA@ 000000018000f058     LIBCMT:winapinls.obj
 0002:00003060       ??_C@_15FOMCIDHG@?$AAd?$AAa?$AA?$AA@ 000000018000f060     LIBCMT:winapinls.obj
 0002:00003068       ??_C@_15NBKABECB@?$AAd?$AAe?$AA?$AA@ 000000018000f068     LIBCMT:winapinls.obj
 0002:00003070       ??_C@_15GHPEIIAO@?$AAe?$AAl?$AA?$AA@ 000000018000f070     LIBCMT:winapinls.obj
 0002:00003078       ??_C@_15MNPNEAIF@?$AAe?$AAn?$AA?$AA@ 000000018000f078     LIBCMT:winapinls.obj
 0002:00003080       ??_C@_15GPIOMPMH@?$AAe?$AAs?$AA?$AA@ 000000018000f080     LIBCMT:winapinls.obj
 0002:00003088       ??_C@_15NGLOAKJC@?$AAf?$AAi?$AA?$AA@ 000000018000f088     LIBCMT:winapinls.obj
 0002:00003090       ??_C@_15FBKGNKAM@?$AAf?$AAr?$AA?$AA@ 000000018000f090     LIBCMT:winapinls.obj
 0002:00003098       ??_C@_15KGGCNEFK@?$AAh?$AAe?$AA?$AA@ 000000018000f098     LIBCMT:winapinls.obj
 0002:000030a0       ??_C@_15PGHLIDMF@?$AAh?$AAu?$AA?$AA@ 000000018000f0a0     LIBCMT:winapinls.obj
 0002:000030a8       ??_C@_15BIEMAPLM@?$AAi?$AAs?$AA?$AA@ 000000018000f0a8     LIBCMT:winapinls.obj
 0002:000030b0       ??_C@_15IFJLDHAF@?$AAi?$AAt?$AA?$AA@ 000000018000f0b0     LIBCMT:winapinls.obj
 0002:000030b8       ??_C@_15GEMIOCAG@?$AAj?$AAa?$AA?$AA@ 000000018000f0b8     LIBCMT:winapinls.obj
 0002:000030c0       ??_C@_15EPELEGJA@?$AAk?$AAo?$AA?$AA@ 000000018000f0c0     LIBCMT:winapinls.obj
 0002:000030c8       ??_C@_15NDDHIMN@?$AAn?$AAl?$AA?$AA@ 000000018000f0c8     LIBCMT:winapinls.obj
 0002:000030d0       ??_C@_15BPIGNHCD@?$AAn?$AAo?$AA?$AA@ 000000018000f0d0     LIBCMT:winapinls.obj
 0002:000030d8       ??_C@_15DEOPBLCG@?$AAp?$AAl?$AA?$AA@ 000000018000f0d8     LIBCMT:winapinls.obj
 0002:000030e0       ??_C@_15KBECGEFG@?$AAp?$AAt?$AA?$AA@ 000000018000f0e0     LIBCMT:winapinls.obj
 0002:000030e8       ??_C@_15GLJCBFMD@?$AAr?$AAo?$AA?$AA@ 000000018000f0e8     LIBCMT:winapinls.obj
 0002:000030f0       ??_C@_15FEDGKCDI@?$AAr?$AAu?$AA?$AA@ 000000018000f0f0     LIBCMT:winapinls.obj
 0002:000030f8       ??_C@_15GLKMLLHM@?$AAh?$AAr?$AA?$AA@ 000000018000f0f8     LIBCMT:winapinls.obj
 0002:00003100       ??_C@_15CPKMFBDB@?$AAs?$AAk?$AA?$AA@ 000000018000f100     LIBCMT:winapinls.obj
 0002:00003108       ??_C@_15BAAIOGMK@?$AAs?$AAq?$AA?$AA@ 000000018000f108     LIBCMT:winapinls.obj
 0002:00003110       ??_C@_15INNPNOHD@?$AAs?$AAv?$AA?$AA@ 000000018000f110     LIBCMT:winapinls.obj
 0002:00003118       ??_C@_15CABMMOGH@?$AAt?$AAh?$AA?$AA@ 000000018000f118     LIBCMT:winapinls.obj
 0002:00003120       ??_C@_15BPLIHJJM@?$AAt?$AAr?$AA?$AA@ 000000018000f120     LIBCMT:winapinls.obj
 0002:00003128       ??_C@_15NEOEKKDJ@?$AAu?$AAr?$AA?$AA@ 000000018000f128     LIBCMT:winapinls.obj
 0002:00003130       ??_C@_15NFICGAJK@?$AAi?$AAd?$AA?$AA@ 000000018000f130     LIBCMT:winapinls.obj
 0002:00003138       ??_C@_15HPJPHDM@?$AAb?$AAe?$AA?$AA@ 000000018000f138     LIBCMT:winapinls.obj
 0002:00003140       ??_C@_15LCHLGJII@?$AAs?$AAl?$AA?$AA@ 000000018000f140     LIBCMT:winapinls.obj
 0002:00003148       ??_C@_15PCFJPHHO@?$AAe?$AAt?$AA?$AA@ 000000018000f148     LIBCMT:winapinls.obj
 0002:00003150       ??_C@_15HPFPGODN@?$AAl?$AAv?$AA?$AA@ 000000018000f150     LIBCMT:winapinls.obj
 0002:00003158       ??_C@_15NFFGKGLG@?$AAl?$AAt?$AA?$AA@ 000000018000f158     LIBCMT:winapinls.obj
 0002:00003160       ??_C@_15BDAKCCHN@?$AAf?$AAa?$AA?$AA@ 000000018000f160     LIBCMT:winapinls.obj
 0002:00003168       ??_C@_15NFGIAIAJ@?$AAv?$AAi?$AA?$AA@ 000000018000f168     LIBCMT:winapinls.obj
 0002:00003170       ??_C@_15LMKNDMHN@?$AAh?$AAy?$AA?$AA@ 000000018000f170     LIBCMT:winapinls.obj
 0002:00003178       ??_C@_15IJBHMCFL@?$AAa?$AAz?$AA?$AA@ 000000018000f178     LIBCMT:winapinls.obj
 0002:00003180       ??_C@_15EKOFJABL@?$AAe?$AAu?$AA?$AA@ 000000018000f180     LIBCMT:winapinls.obj
 0002:00003188       ??_C@_15BGHADCNK@?$AAm?$AAk?$AA?$AA@ 000000018000f188     LIBCMT:winapinls.obj
 0002:00003190       ??_C@_15JDNICKHM@?$AAa?$AAf?$AA?$AA@ 000000018000f190     LIBCMT:winapinls.obj
 0002:00003198       ??_C@_15KPJEDBKD@?$AAk?$AAa?$AA?$AA@ 000000018000f198     LIBCMT:winapinls.obj
 0002:000031a0       ??_C@_15PDNFFFEO@?$AAf?$AAo?$AA?$AA@ 000000018000f1a0     LIBCMT:winapinls.obj
 0002:000031a8       ??_C@_15OMLEGLOC@?$AAh?$AAi?$AA?$AA@ 000000018000f1a8     LIBCMT:winapinls.obj
 0002:000031b0       ??_C@_15IDNNENKK@?$AAm?$AAs?$AA?$AA@ 000000018000f1b0     LIBCMT:winapinls.obj
 0002:000031b8       ??_C@_15MACJNBMH@?$AAk?$AAk?$AA?$AA@ 000000018000f1b8     LIBCMT:winapinls.obj
 0002:000031c0       ??_C@_15DKDJEOND@?$AAk?$AAy?$AA?$AA@ 000000018000f1c0     LIBCMT:winapinls.obj
 0002:000031c8       ??_C@_15DFGDLJBG@?$AAs?$AAw?$AA?$AA@ 000000018000f1c8     LIBCMT:winapinls.obj
 0002:000031d0       ??_C@_15BBFAICNG@?$AAu?$AAz?$AA?$AA@ 000000018000f1d0     LIBCMT:winapinls.obj
 0002:000031d8       ??_C@_15DKNDCGEA@?$AAt?$AAt?$AA?$AA@ 000000018000f1d8     LIBCMT:winapinls.obj
 0002:000031e0       ??_C@_15MGIFMDPL@?$AAp?$AAa?$AA?$AA@ 000000018000f1e0     LIBCMT:winapinls.obj
 0002:000031e8       ??_C@_15HCNDBBA@?$AAg?$AAu?$AA?$AA@ 000000018000f1e8     LIBCMT:winapinls.obj
 0002:000031f0       ??_C@_15FNBEIBON@?$AAt?$AAa?$AA?$AA@ 000000018000f1f0     LIBCMT:winapinls.obj
 0002:000031f8       ??_C@_15NCHGBGLK@?$AAt?$AAe?$AA?$AA@ 000000018000f1f8     LIBCMT:winapinls.obj
 0002:00003200       ??_C@_15PHPHCBPF@?$AAk?$AAn?$AA?$AA@ 000000018000f200     LIBCMT:winapinls.obj
 0002:00003208       ??_C@_15DLGBCKMP@?$AAm?$AAr?$AA?$AA@ 000000018000f208     LIBCMT:winapinls.obj
 0002:00003210       ??_C@_15EABBLBFF@?$AAs?$AAa?$AA?$AA@ 000000018000f210     LIBCMT:winapinls.obj
 0002:00003218       ??_C@_15CBKOMCOI@?$AAm?$AAn?$AA?$AA@ 000000018000f218     LIBCMT:winapinls.obj
 0002:00003220       ??_C@_15CKDMCJAF@?$AAg?$AAl?$AA?$AA@ 000000018000f220     LIBCMT:winapinls.obj
 0002:00003228       ??_C@_17CNJFBPG@?$AAk?$AAo?$AAk?$AA?$AA@ 000000018000f228     LIBCMT:winapinls.obj
 0002:00003230       ??_C@_17FFBJICPL@?$AAs?$AAy?$AAr?$AA?$AA@ 000000018000f230     LIBCMT:winapinls.obj
 0002:00003238       ??_C@_17KPNDCPAF@?$AAd?$AAi?$AAv?$AA?$AA@ 000000018000f238     LIBCMT:winapinls.obj
 0002:00003240       ??_C@_11LOCGONAA@?$AA?$AA@ 000000018000f240     LIBCMT:winapinls.obj
 0002:00003248       ??_C@_1M@OKAHONE@?$AAa?$AAr?$AA?9?$AAS?$AAA?$AA?$AA@ 000000018000f248     LIBCMT:winapinls.obj
 0002:00003258       ??_C@_1M@FFFIGIGK@?$AAb?$AAg?$AA?9?$AAB?$AAG?$AA?$AA@ 000000018000f258     LIBCMT:winapinls.obj
 0002:00003268       ??_C@_1M@BJNKEDC@?$AAc?$AAa?$AA?9?$AAE?$AAS?$AA?$AA@ 000000018000f268     LIBCMT:winapinls.obj
 0002:00003278       ??_C@_1M@IJJHFJHA@?$AAc?$AAs?$AA?9?$AAC?$AAZ?$AA?$AA@ 000000018000f278     LIBCMT:winapinls.obj
 0002:00003288       ??_C@_1M@CLPEOBGI@?$AAd?$AAa?$AA?9?$AAD?$AAK?$AA?$AA@ 000000018000f288     LIBCMT:winapinls.obj
 0002:00003298       ??_C@_1M@MCMADGCB@?$AAd?$AAe?$AA?9?$AAD?$AAE?$AA?$AA@ 000000018000f298     LIBCMT:winapinls.obj
 0002:000032a8       ??_C@_1M@OOCKEMAM@?$AAe?$AAl?$AA?9?$AAG?$AAR?$AA?$AA@ 000000018000f2a8     LIBCMT:winapinls.obj
 0002:000032b8       ??_C@_1M@DDNJFGID@?$AAf?$AAi?$AA?9?$AAF?$AAI?$AA?$AA@ 000000018000f2b8     LIBCMT:winapinls.obj
 0002:000032c8       ??_C@_1M@GLIPPMAC@?$AAf?$AAr?$AA?9?$AAF?$AAR?$AA?$AA@ 000000018000f2c8     LIBCMT:winapinls.obj
 0002:000032d8       ??_C@_1M@GFMCHPE@?$AAh?$AAe?$AA?9?$AAI?$AAL?$AA?$AA@ 000000018000f2d8     LIBCMT:winapinls.obj
 0002:000032e8       ??_C@_1M@MHLPGNKM@?$AAh?$AAu?$AA?9?$AAH?$AAU?$AA?$AA@ 000000018000f2e8     LIBCMT:winapinls.obj
 0002:000032f8       ??_C@_1M@LPDDNNPN@?$AAi?$AAs?$AA?9?$AAI?$AAS?$AA?$AA@ 000000018000f2f8     LIBCMT:winapinls.obj
 0002:00003308       ??_C@_1M@MADIPODN@?$AAi?$AAt?$AA?9?$AAI?$AAT?$AA?$AA@ 000000018000f308     LIBCMT:winapinls.obj
 0002:00003318       ??_C@_1M@IHBJJGG@?$AAn?$AAl?$AA?9?$AAN?$AAL?$AA?$AA@ 000000018000f318     LIBCMT:winapinls.obj
 0002:00003328       ??_C@_1M@EANAGDL@?$AAn?$AAb?$AA?9?$AAN?$AAO?$AA?$AA@ 000000018000f328     LIBCMT:winapinls.obj
 0002:00003338       ??_C@_1M@NEIEMEGP@?$AAp?$AAl?$AA?9?$AAP?$AAL?$AA?$AA@ 000000018000f338     LIBCMT:winapinls.obj
 0002:00003348       ??_C@_1M@BOCFIGEP@?$AAp?$AAt?$AA?9?$AAB?$AAR?$AA?$AA@ 000000018000f348     LIBCMT:winapinls.obj
 0002:00003358       ??_C@_1M@IMPFOPBG@?$AAr?$AAo?$AA?9?$AAR?$AAO?$AA?$AA@ 000000018000f358     LIBCMT:winapinls.obj
 0002:00003368       ??_C@_1M@IDNNEJMM@?$AAr?$AAu?$AA?9?$AAR?$AAU?$AA?$AA@ 000000018000f368     LIBCMT:winapinls.obj
 0002:00003378       ??_C@_1M@LILEEOGM@?$AAh?$AAr?$AA?9?$AAH?$AAR?$AA?$AA@ 000000018000f378     LIBCMT:winapinls.obj
 0002:00003388       ??_C@_1M@FKIFEHPB@?$AAs?$AAk?$AA?9?$AAS?$AAK?$AA?$AA@ 000000018000f388     LIBCMT:winapinls.obj
 0002:00003398       ??_C@_1M@LJMAMNPJ@?$AAs?$AAq?$AA?9?$AAA?$AAL?$AA?$AA@ 000000018000f398     LIBCMT:winapinls.obj
 0002:000033a8       ??_C@_1M@GIAKDKJK@?$AAs?$AAv?$AA?9?$AAS?$AAE?$AA?$AA@ 000000018000f3a8     LIBCMT:winapinls.obj
 0002:000033b8       ??_C@_1M@MKJKIKCL@?$AAt?$AAh?$AA?9?$AAT?$AAH?$AA?$AA@ 000000018000f3b8     LIBCMT:winapinls.obj
 0002:000033c8       ??_C@_1M@MFLCCMPB@?$AAt?$AAr?$AA?9?$AAT?$AAR?$AA?$AA@ 000000018000f3c8     LIBCMT:winapinls.obj
 0002:000033d8       ??_C@_1M@OIJHDKJN@?$AAu?$AAr?$AA?9?$AAP?$AAK?$AA?$AA@ 000000018000f3d8     LIBCMT:winapinls.obj
 0002:000033e8       ??_C@_1M@LHIPCIEK@?$AAi?$AAd?$AA?9?$AAI?$AAD?$AA?$AA@ 000000018000f3e8     LIBCMT:winapinls.obj
 0002:000033f8       ??_C@_1M@MFMOBGI@?$AAu?$AAk?$AA?9?$AAU?$AAA?$AA?$AA@ 000000018000f3f8     LIBCMT:winapinls.obj
 0002:00003408       ??_C@_1M@OBGLJIPL@?$AAb?$AAe?$AA?9?$AAB?$AAY?$AA?$AA@ 000000018000f408     LIBCMT:winapinls.obj
 0002:00003418       ??_C@_1M@BCFAJEAD@?$AAs?$AAl?$AA?9?$AAS?$AAI?$AA?$AA@ 000000018000f418     LIBCMT:winapinls.obj
 0002:00003428       ??_C@_1M@FKFFEDDN@?$AAe?$AAt?$AA?9?$AAE?$AAE?$AA?$AA@ 000000018000f428     LIBCMT:winapinls.obj
 0002:00003438       ??_C@_1M@KGKKAACI@?$AAl?$AAv?$AA?9?$AAL?$AAV?$AA?$AA@ 000000018000f438     LIBCMT:winapinls.obj
 0002:00003448       ??_C@_1M@IFGBIJO@?$AAl?$AAt?$AA?9?$AAL?$AAT?$AA?$AA@ 000000018000f448     LIBCMT:winapinls.obj
 0002:00003458       ??_C@_1M@FGEAHEDM@?$AAf?$AAa?$AA?9?$AAI?$AAR?$AA?$AA@ 000000018000f458     LIBCMT:winapinls.obj
 0002:00003468       ??_C@_1M@KBMAIBFN@?$AAv?$AAi?$AA?9?$AAV?$AAN?$AA?$AA@ 000000018000f468     LIBCMT:winapinls.obj
 0002:00003478       ??_C@_1M@GPCBKDJK@?$AAh?$AAy?$AA?9?$AAA?$AAM?$AA?$AA@ 000000018000f478     LIBCMT:winapinls.obj
 0002:00003488       ??_C@_1BG@BECMDDJB@?$AAa?$AAz?$AA?9?$AAA?$AAZ?$AA?9?$AAL?$AAa?$AAt?$AAn?$AA?$AA@ 000000018000f488     LIBCMT:winapinls.obj
 0002:000034a0       ??_C@_1M@MAOFCAEA@?$AAe?$AAu?$AA?9?$AAE?$AAS?$AA?$AA@ 000000018000f4a0     LIBCMT:winapinls.obj
 0002:000034b0       ??_C@_1M@IGHABKPI@?$AAm?$AAk?$AA?9?$AAM?$AAK?$AA?$AA@ 000000018000f4b0     LIBCMT:winapinls.obj
 0002:000034c0       ??_C@_1M@IAIGNEJG@?$AAt?$AAn?$AA?9?$AAZ?$AAA?$AA?$AA@ 000000018000f4c0     LIBCMT:winapinls.obj
 0002:000034d0       ??_C@_1M@IIJCOJFA@?$AAx?$AAh?$AA?9?$AAZ?$AAA?$AA?$AA@ 000000018000f4d0     LIBCMT:winapinls.obj
 0002:000034e0       ??_C@_1M@LGPJHNJH@?$AAz?$AAu?$AA?9?$AAZ?$AAA?$AA?$AA@ 000000018000f4e0     LIBCMT:winapinls.obj
 0002:000034f0       ??_C@_1M@HOKAOIO@?$AAa?$AAf?$AA?9?$AAZ?$AAA?$AA?$AA@ 000000018000f4f0     LIBCMT:winapinls.obj
 0002:00003500       ??_C@_1M@DPCLHLIE@?$AAk?$AAa?$AA?9?$AAG?$AAE?$AA?$AA@ 000000018000f500     LIBCMT:winapinls.obj
 0002:00003510       ??_C@_1M@BLKMHJBI@?$AAf?$AAo?$AA?9?$AAF?$AAO?$AA?$AA@ 000000018000f510     LIBCMT:winapinls.obj
 0002:00003520       ??_C@_1M@LGGJAPPB@?$AAh?$AAi?$AA?9?$AAI?$AAN?$AA?$AA@ 000000018000f520     LIBCMT:winapinls.obj
 0002:00003530       ??_C@_1M@FIKPIHFE@?$AAm?$AAt?$AA?9?$AAM?$AAT?$AA?$AA@ 000000018000f530     LIBCMT:winapinls.obj
 0002:00003540       ??_C@_1M@HEGGPBFA@?$AAs?$AAe?$AA?9?$AAN?$AAO?$AA?$AA@ 000000018000f540     LIBCMT:winapinls.obj
 0002:00003550       ??_C@_1M@EIBJEEPA@?$AAm?$AAs?$AA?9?$AAM?$AAY?$AA?$AA@ 000000018000f550     LIBCMT:winapinls.obj
 0002:00003560       ??_C@_1M@FHLBGMPP@?$AAk?$AAk?$AA?9?$AAK?$AAZ?$AA?$AA@ 000000018000f560     LIBCMT:winapinls.obj
 0002:00003570       ??_C@_1M@NGJJLCGI@?$AAk?$AAy?$AA?9?$AAK?$AAG?$AA?$AA@ 000000018000f570     LIBCMT:winapinls.obj
 0002:00003580       ??_C@_1M@GIENNBFC@?$AAs?$AAw?$AA?9?$AAK?$AAE?$AA?$AA@ 000000018000f580     LIBCMT:winapinls.obj
 0002:00003590       ??_C@_1BG@NDGMJIMJ@?$AAu?$AAz?$AA?9?$AAU?$AAZ?$AA?9?$AAL?$AAa?$AAt?$AAn?$AA?$AA@ 000000018000f590     LIBCMT:winapinls.obj
 0002:000035a8       ??_C@_1M@IDCCIHBC@?$AAt?$AAt?$AA?9?$AAR?$AAU?$AA?$AA@ 000000018000f5a8     LIBCMT:winapinls.obj
 0002:000035b8       ??_C@_1M@LOICPMOJ@?$AAb?$AAn?$AA?9?$AAI?$AAN?$AA?$AA@ 000000018000f5b8     LIBCMT:winapinls.obj
 0002:000035c8       ??_C@_1M@KPKKNEAH@?$AAp?$AAa?$AA?9?$AAI?$AAN?$AA?$AA@ 000000018000f5c8     LIBCMT:winapinls.obj
 0002:000035d8       ??_C@_1M@PJGPPBOG@?$AAg?$AAu?$AA?9?$AAI?$AAN?$AA?$AA@ 000000018000f5d8     LIBCMT:winapinls.obj
 0002:000035e8       ??_C@_1M@KMKMOPHI@?$AAt?$AAa?$AA?9?$AAI?$AAN?$AA?$AA@ 000000018000f5e8     LIBCMT:winapinls.obj
 0002:000035f8       ??_C@_1M@KFEHEPAC@?$AAt?$AAe?$AA?9?$AAI?$AAN?$AA?$AA@ 000000018000f5f8     LIBCMT:winapinls.obj
 0002:00003608       ??_C@_1M@CDCLMGHI@?$AAk?$AAn?$AA?9?$AAI?$AAN?$AA?$AA@ 000000018000f608     LIBCMT:winapinls.obj
 0002:00003618       ??_C@_1M@MIODLDKF@?$AAm?$AAl?$AA?9?$AAI?$AAN?$AA?$AA@ 000000018000f618     LIBCMT:winapinls.obj
 0002:00003628       ??_C@_1M@PBIEACPO@?$AAm?$AAr?$AA?9?$AAI?$AAN?$AA?$AA@ 000000018000f628     LIBCMT:winapinls.obj
 0002:00003638       ??_C@_1M@NIDEAGPH@?$AAs?$AAa?$AA?9?$AAI?$AAN?$AA?$AA@ 000000018000f638     LIBCMT:winapinls.obj
 0002:00003648       ??_C@_1M@FHIHCBIO@?$AAm?$AAn?$AA?9?$AAM?$AAN?$AA?$AA@ 000000018000f648     LIBCMT:winapinls.obj
 0002:00003658       ??_C@_1M@JAIJPENP@?$AAc?$AAy?$AA?9?$AAG?$AAB?$AA?$AA@ 000000018000f658     LIBCMT:winapinls.obj
 0002:00003668       ??_C@_1M@PHGFBEPN@?$AAg?$AAl?$AA?9?$AAE?$AAS?$AA?$AA@ 000000018000f668     LIBCMT:winapinls.obj
 0002:00003678       ??_C@_1O@KPIPDNCP@?$AAk?$AAo?$AAk?$AA?9?$AAI?$AAN?$AA?$AA@ 000000018000f678     LIBCMT:winapinls.obj
 0002:00003688       ??_C@_1O@KNHJLDJA@?$AAs?$AAy?$AAr?$AA?9?$AAS?$AAY?$AA?$AA@ 000000018000f688     LIBCMT:winapinls.obj
 0002:00003698       ??_C@_1O@MKEKBLAH@?$AAd?$AAi?$AAv?$AA?9?$AAM?$AAV?$AA?$AA@ 000000018000f698     LIBCMT:winapinls.obj
 0002:000036a8       ??_C@_1O@OHDCKDDF@?$AAq?$AAu?$AAz?$AA?9?$AAB?$AAO?$AA?$AA@ 000000018000f6a8     LIBCMT:winapinls.obj
 0002:000036b8       ??_C@_1M@LEPJNLFD@?$AAn?$AAs?$AA?9?$AAZ?$AAA?$AA?$AA@ 000000018000f6b8     LIBCMT:winapinls.obj
 0002:000036c8       ??_C@_1M@OMLEIIJB@?$AAm?$AAi?$AA?9?$AAN?$AAZ?$AA?$AA@ 000000018000f6c8     LIBCMT:winapinls.obj
 0002:000036d8       ??_C@_1M@PMPEAILG@?$AAa?$AAr?$AA?9?$AAI?$AAQ?$AA?$AA@ 000000018000f6d8     LIBCMT:winapinls.obj
 0002:000036e8       ??_C@_1M@CNKPNOEE@?$AAd?$AAe?$AA?9?$AAC?$AAH?$AA?$AA@ 000000018000f6e8     LIBCMT:winapinls.obj
 0002:000036f8       ??_C@_1M@LKMGMLKO@?$AAe?$AAn?$AA?9?$AAG?$AAB?$AA?$AA@ 000000018000f6f8     LIBCMT:winapinls.obj
 0002:00003708       ??_C@_1M@PGKJFFGL@?$AAe?$AAs?$AA?9?$AAM?$AAX?$AA?$AA@ 000000018000f708     LIBCMT:winapinls.obj
 0002:00003718       ??_C@_1M@DNNANBDC@?$AAf?$AAr?$AA?9?$AAB?$AAE?$AA?$AA@ 000000018000f718     LIBCMT:winapinls.obj
 0002:00003728       ??_C@_1M@HLGMDFHM@?$AAi?$AAt?$AA?9?$AAC?$AAH?$AA?$AA@ 000000018000f728     LIBCMT:winapinls.obj
 0002:00003738       ??_C@_1M@CLLBGJH@?$AAn?$AAl?$AA?9?$AAB?$AAE?$AA?$AA@ 000000018000f738     LIBCMT:winapinls.obj
 0002:00003748       ??_C@_1M@BODBOGLF@?$AAn?$AAn?$AA?9?$AAN?$AAO?$AA?$AA@ 000000018000f748     LIBCMT:winapinls.obj
 0002:00003758       ??_C@_1M@HFFAHKAD@?$AAp?$AAt?$AA?9?$AAP?$AAT?$AA?$AA@ 000000018000f758     LIBCMT:winapinls.obj
 0002:00003768       ??_C@_1BG@LNOAKHIE@?$AAs?$AAr?$AA?9?$AAS?$AAP?$AA?9?$AAL?$AAa?$AAt?$AAn?$AA?$AA@ 000000018000f768     LIBCMT:winapinls.obj
 0002:00003780       ??_C@_1M@HBMHBGAK@?$AAs?$AAv?$AA?9?$AAF?$AAI?$AA?$AA@ 000000018000f780     LIBCMT:winapinls.obj
 0002:00003790       ??_C@_1BG@DGCJGJBE@?$AAa?$AAz?$AA?9?$AAA?$AAZ?$AA?9?$AAC?$AAy?$AAr?$AAl?$AA?$AA@ 000000018000f790     LIBCMT:winapinls.obj
 0002:000037a8       ??_C@_1M@KEJDAAHB@?$AAs?$AAe?$AA?9?$AAS?$AAE?$AA?$AA@ 000000018000f7a8     LIBCMT:winapinls.obj
 0002:000037b8       ??_C@_1M@HEIBJJAD@?$AAm?$AAs?$AA?9?$AAB?$AAN?$AA?$AA@ 000000018000f7b8     LIBCMT:winapinls.obj
 0002:000037c8       ??_C@_1BG@PBGJMCEM@?$AAu?$AAz?$AA?9?$AAU?$AAZ?$AA?9?$AAC?$AAy?$AAr?$AAl?$AA?$AA@ 000000018000f7c8     LIBCMT:winapinls.obj
 0002:000037e0       ??_C@_1O@LAOBCMDF@?$AAq?$AAu?$AAz?$AA?9?$AAE?$AAC?$AA?$AA@ 000000018000f7e0     LIBCMT:winapinls.obj
 0002:000037f0       ??_C@_1M@POEEMAIO@?$AAa?$AAr?$AA?9?$AAE?$AAG?$AA?$AA@ 000000018000f7f0     LIBCMT:winapinls.obj
 0002:00003800       ??_C@_1M@EFAKDEDL@?$AAz?$AAh?$AA?9?$AAH?$AAK?$AA?$AA@ 000000018000f800     LIBCMT:winapinls.obj
 0002:00003810       ??_C@_1M@HKKIJHGI@?$AAd?$AAe?$AA?9?$AAA?$AAT?$AA?$AA@ 000000018000f810     LIBCMT:winapinls.obj
 0002:00003820       ??_C@_1M@KBFBEHJF@?$AAe?$AAn?$AA?9?$AAA?$AAU?$AA?$AA@ 000000018000f820     LIBCMT:winapinls.obj
 0002:00003830       ??_C@_1M@MNPLFAAH@?$AAe?$AAs?$AA?9?$AAE?$AAS?$AA?$AA@ 000000018000f830     LIBCMT:winapinls.obj
 0002:00003840       ??_C@_1M@HJOOJFMA@?$AAf?$AAr?$AA?9?$AAC?$AAA?$AA?$AA@ 000000018000f840     LIBCMT:winapinls.obj
 0002:00003850       ??_C@_1BG@JPOFPNAB@?$AAs?$AAr?$AA?9?$AAS?$AAP?$AA?9?$AAC?$AAy?$AAr?$AAl?$AA?$AA@ 000000018000f850     LIBCMT:winapinls.obj
 0002:00003868       ??_C@_1M@LNFOCMOB@?$AAs?$AAe?$AA?9?$AAF?$AAI?$AA?$AA@ 000000018000f868     LIBCMT:winapinls.obj
 0002:00003878       ??_C@_1O@MGJBOAMB@?$AAq?$AAu?$AAz?$AA?9?$AAP?$AAE?$AA?$AA@ 000000018000f878     LIBCMT:winapinls.obj
 0002:00003888       ??_C@_1M@GJINLBOK@?$AAa?$AAr?$AA?9?$AAL?$AAY?$AA?$AA@ 000000018000f888     LIBCMT:winapinls.obj
 0002:00003898       ??_C@_1M@GGMNHJNL@?$AAz?$AAh?$AA?9?$AAS?$AAG?$AA?$AA@ 000000018000f898     LIBCMT:winapinls.obj
 0002:000038a8       ??_C@_1M@HOIKODND@?$AAd?$AAe?$AA?9?$AAL?$AAU?$AA?$AA@ 000000018000f8a8     LIBCMT:winapinls.obj
 0002:000038b8       ??_C@_1M@DDOCCGFG@?$AAe?$AAn?$AA?9?$AAC?$AAA?$AA?$AA@ 000000018000f8b8     LIBCMT:winapinls.obj
 0002:000038c8       ??_C@_1M@BNOEMJLF@?$AAe?$AAs?$AA?9?$AAG?$AAT?$AA?$AA@ 000000018000f8c8     LIBCMT:winapinls.obj
 0002:000038d8       ??_C@_1M@EOGNKEK@?$AAf?$AAr?$AA?9?$AAC?$AAH?$AA?$AA@ 000000018000f8d8     LIBCMT:winapinls.obj
 0002:000038e8       ??_C@_1M@FLIDJFHL@?$AAh?$AAr?$AA?9?$AAB?$AAA?$AA?$AA@ 000000018000f8e8     LIBCMT:winapinls.obj
 0002:000038f8       ??_C@_1O@FMCELNAJ@?$AAs?$AAm?$AAj?$AA?9?$AAN?$AAO?$AA?$AA@ 000000018000f8f8     LIBCMT:winapinls.obj
 0002:00003908       ??_C@_1M@JHGLJMGJ@?$AAa?$AAr?$AA?9?$AAD?$AAZ?$AA?$AA@ 000000018000f908     LIBCMT:winapinls.obj
 0002:00003918       ??_C@_1M@JKKFDCNP@?$AAz?$AAh?$AA?9?$AAM?$AAO?$AA?$AA@ 000000018000f918     LIBCMT:winapinls.obj
 0002:00003928       ??_C@_1M@GEEFALPE@?$AAd?$AAe?$AA?9?$AAL?$AAI?$AA?$AA@ 000000018000f928     LIBCMT:winapinls.obj
 0002:00003938       ??_C@_1M@IGEOFBG@?$AAe?$AAn?$AA?9?$AAN?$AAZ?$AA?$AA@ 000000018000f938     LIBCMT:winapinls.obj
 0002:00003948       ??_C@_1M@KDBONEHP@?$AAe?$AAs?$AA?9?$AAC?$AAR?$AA?$AA@ 000000018000f948     LIBCMT:winapinls.obj
 0002:00003958       ??_C@_1M@FHMDOHNN@?$AAf?$AAr?$AA?9?$AAL?$AAU?$AA?$AA@ 000000018000f958     LIBCMT:winapinls.obj
 0002:00003968       ??_C@_1BG@NFKKMAFG@?$AAb?$AAs?$AA?9?$AAB?$AAA?$AA?9?$AAL?$AAa?$AAt?$AAn?$AA?$AA@ 000000018000f968     LIBCMT:winapinls.obj
 0002:00003980       ??_C@_1O@IMNBEMCI@?$AAs?$AAm?$AAj?$AA?9?$AAS?$AAE?$AA?$AA@ 000000018000f980     LIBCMT:winapinls.obj
 0002:00003990       ??_C@_1M@DHHMBNDP@?$AAa?$AAr?$AA?9?$AAM?$AAA?$AA?$AA@ 000000018000f990     LIBCMT:winapinls.obj
 0002:000039a0       ??_C@_1M@BNBLJCGH@?$AAe?$AAn?$AA?9?$AAI?$AAE?$AA?$AA@ 000000018000f9a0     LIBCMT:winapinls.obj
 0002:000039b0       ??_C@_1M@GEPAFMDL@?$AAe?$AAs?$AA?9?$AAP?$AAA?$AA?$AA@ 000000018000f9b0     LIBCMT:winapinls.obj
 0002:000039c0       ??_C@_1M@OJONDMDL@?$AAf?$AAr?$AA?9?$AAM?$AAC?$AA?$AA@ 000000018000f9c0     LIBCMT:winapinls.obj
 0002:000039d0       ??_C@_1BG@OBCNFJB@?$AAs?$AAr?$AA?9?$AAB?$AAA?$AA?9?$AAL?$AAa?$AAt?$AAn?$AA?$AA@ 000000018000f9d0     LIBCMT:winapinls.obj
 0002:000039e8       ??_C@_1O@KEMEEGPO@?$AAs?$AAm?$AAa?$AA?9?$AAN?$AAO?$AA?$AA@ 000000018000f9e8     LIBCMT:winapinls.obj
 0002:000039f8       ??_C@_1M@ELMGFODK@?$AAa?$AAr?$AA?9?$AAT?$AAN?$AA?$AA@ 000000018000f9f8     LIBCMT:winapinls.obj
 0002:00003a08       ??_C@_1M@BHDLHFAF@?$AAe?$AAn?$AA?9?$AAZ?$AAA?$AA?$AA@ 000000018000fa08     LIBCMT:winapinls.obj
 0002:00003a18       ??_C@_1M@BMGIGLIF@?$AAe?$AAs?$AA?9?$AAD?$AAO?$AA?$AA@ 000000018000fa18     LIBCMT:winapinls.obj
 0002:00003a28       ??_C@_1BG@CMBHIPBE@?$AAs?$AAr?$AA?9?$AAB?$AAA?$AA?9?$AAC?$AAy?$AAr?$AAl?$AA?$AA@ 000000018000fa28     LIBCMT:winapinls.obj
 0002:00003a40       ??_C@_1O@HEDBLHNP@?$AAs?$AAm?$AAa?$AA?9?$AAS?$AAE?$AA?$AA@ 000000018000fa40     LIBCMT:winapinls.obj
 0002:00003a50       ??_C@_1M@DAGCADIM@?$AAa?$AAr?$AA?9?$AAO?$AAM?$AA?$AA@ 000000018000fa50     LIBCMT:winapinls.obj
 0002:00003a60       ??_C@_1M@FODLMICG@?$AAe?$AAn?$AA?9?$AAJ?$AAM?$AA?$AA@ 000000018000fa60     LIBCMT:winapinls.obj
 0002:00003a70       ??_C@_1M@DNMLCIHB@?$AAe?$AAs?$AA?9?$AAV?$AAE?$AA?$AA@ 000000018000fa70     LIBCMT:winapinls.obj
 0002:00003a80       ??_C@_1O@EOKHMKJK@?$AAs?$AAm?$AAs?$AA?9?$AAF?$AAI?$AA?$AA@ 000000018000fa80     LIBCMT:winapinls.obj
 0002:00003a90       ??_C@_1M@CAFJMKOF@?$AAa?$AAr?$AA?9?$AAY?$AAE?$AA?$AA@ 000000018000fa90     LIBCMT:winapinls.obj
 0002:00003aa0       ??_C@_1M@CBFHIJLI@?$AAe?$AAn?$AA?9?$AAC?$AAB?$AA?$AA@ 000000018000faa0     LIBCMT:winapinls.obj
 0002:00003ab0       ??_C@_1M@BGNFLDN@?$AAe?$AAs?$AA?9?$AAC?$AAO?$AA?$AA@ 000000018000fab0     LIBCMT:winapinls.obj
 0002:00003ac0       ??_C@_1O@JMPHMAMC@?$AAs?$AAm?$AAn?$AA?9?$AAF?$AAI?$AA?$AA@ 000000018000fac0     LIBCMT:winapinls.obj
 0002:00003ad0       ??_C@_1M@JLANABKE@?$AAa?$AAr?$AA?9?$AAS?$AAY?$AA?$AA@ 000000018000fad0     LIBCMT:winapinls.obj
 0002:00003ae0       ??_C@_1M@HPKGCFGN@?$AAe?$AAn?$AA?9?$AAB?$AAZ?$AA?$AA@ 000000018000fae0     LIBCMT:winapinls.obj
 0002:00003af0       ??_C@_1M@OLJCMLGM@?$AAe?$AAs?$AA?9?$AAP?$AAE?$AA?$AA@ 000000018000faf0     LIBCMT:winapinls.obj
 0002:00003b00       ??_C@_1M@MKKGFKLE@?$AAa?$AAr?$AA?9?$AAJ?$AAO?$AA?$AA@ 000000018000fb00     LIBCMT:winapinls.obj
 0002:00003b10       ??_C@_1M@EKPGLDNI@?$AAe?$AAn?$AA?9?$AAT?$AAT?$AA?$AA@ 000000018000fb10     LIBCMT:winapinls.obj
 0002:00003b20       ??_C@_1M@OONGHFHE@?$AAe?$AAs?$AA?9?$AAA?$AAR?$AA?$AA@ 000000018000fb20     LIBCMT:winapinls.obj
 0002:00003b30       ??_C@_1M@OOJFGBHE@?$AAa?$AAr?$AA?9?$AAL?$AAB?$AA?$AA@ 000000018000fb30     LIBCMT:winapinls.obj
 0002:00003b40       ??_C@_1M@GCEJHNEG@?$AAe?$AAn?$AA?9?$AAZ?$AAW?$AA?$AA@ 000000018000fb40     LIBCMT:winapinls.obj
 0002:00003b50       ??_C@_1M@JNOCAHJI@?$AAe?$AAs?$AA?9?$AAE?$AAC?$AA?$AA@ 000000018000fb50     LIBCMT:winapinls.obj
 0002:00003b60       ??_C@_1M@JEFHPGGB@?$AAa?$AAr?$AA?9?$AAK?$AAW?$AA?$AA@ 000000018000fb60     LIBCMT:winapinls.obj
 0002:00003b70       ??_C@_1M@MLKIBJOJ@?$AAe?$AAn?$AA?9?$AAP?$AAH?$AA?$AA@ 000000018000fb70     LIBCMT:winapinls.obj
 0002:00003b80       ??_C@_1M@BDNIPEND@?$AAe?$AAs?$AA?9?$AAC?$AAL?$AA?$AA@ 000000018000fb80     LIBCMT:winapinls.obj
 0002:00003b90       ??_C@_1M@MPNMEKBD@?$AAa?$AAr?$AA?9?$AAA?$AAE?$AA?$AA@ 000000018000fb90     LIBCMT:winapinls.obj
 0002:00003ba0       ??_C@_1M@KBJALCPI@?$AAe?$AAs?$AA?9?$AAU?$AAY?$AA?$AA@ 000000018000fba0     LIBCMT:winapinls.obj
 0002:00003bb0       ??_C@_1M@LLCCOAGA@?$AAa?$AAr?$AA?9?$AAB?$AAH?$AA?$AA@ 000000018000fbb0     LIBCMT:winapinls.obj
 0002:00003bc0       ??_C@_1M@PBFNCDEL@?$AAe?$AAs?$AA?9?$AAP?$AAY?$AA?$AA@ 000000018000fbc0     LIBCMT:winapinls.obj
 0002:00003bd0       ??_C@_1M@EDGINPNP@?$AAa?$AAr?$AA?9?$AAQ?$AAA?$AA?$AA@ 000000018000fbd0     LIBCMT:winapinls.obj
 0002:00003be0       ??_C@_1M@MKDBIIJI@?$AAe?$AAs?$AA?9?$AAB?$AAO?$AA?$AA@ 000000018000fbe0     LIBCMT:winapinls.obj
 0002:00003bf0       ??_C@_1M@CPKKEBLD@?$AAe?$AAs?$AA?9?$AAS?$AAV?$AA?$AA@ 000000018000fbf0     LIBCMT:winapinls.obj
 0002:00003c00       ??_C@_1M@NDBGMMJL@?$AAe?$AAs?$AA?9?$AAH?$AAN?$AA?$AA@ 000000018000fc00     LIBCMT:winapinls.obj
 0002:00003c10       ??_C@_1M@JIJIBHDP@?$AAe?$AAs?$AA?9?$AAN?$AAI?$AA?$AA@ 000000018000fc10     LIBCMT:winapinls.obj
 0002:00003c20       ??_C@_1M@CGFMKEEK@?$AAe?$AAs?$AA?9?$AAP?$AAR?$AA?$AA@ 000000018000fc20     LIBCMT:winapinls.obj
 0002:00003c30       ??_C@_1O@ICJHKIIK@?$AAz?$AAh?$AA?9?$AAC?$AAH?$AAT?$AA?$AA@ 000000018000fc30     LIBCMT:winapinls.obj
 0002:00003c40       ??_C@_15CLNEJCE@?$AAs?$AAr?$AA?$AA@ 000000018000fc40     LIBCMT:winapinls.obj
 0002:00003c48       ??_C@_1M@KAHEKEIG@?$AAa?$AAf?$AA?9?$AAz?$AAa?$AA?$AA@ 000000018000fc48     LIBCMT:winapinls.obj
 0002:00003c58       ??_C@_1M@GIECOABL@?$AAa?$AAr?$AA?9?$AAa?$AAe?$AA?$AA@ 000000018000fc58     LIBCMT:winapinls.obj
 0002:00003c68       ??_C@_1M@BMLMEKGI@?$AAa?$AAr?$AA?9?$AAb?$AAh?$AA?$AA@ 000000018000fc68     LIBCMT:winapinls.obj
 0002:00003c78       ??_C@_1M@DAPFDGGB@?$AAa?$AAr?$AA?9?$AAd?$AAz?$AA?$AA@ 000000018000fc78     LIBCMT:winapinls.obj
 0002:00003c88       ??_C@_1M@FJNKGKIG@?$AAa?$AAr?$AA?9?$AAe?$AAg?$AA?$AA@ 000000018000fc88     LIBCMT:winapinls.obj
 0002:00003c98       ??_C@_1M@FLGKKCLO@?$AAa?$AAr?$AA?9?$AAi?$AAq?$AA?$AA@ 000000018000fc98     LIBCMT:winapinls.obj
 0002:00003ca8       ??_C@_1M@GNDIPALM@?$AAa?$AAr?$AA?9?$AAj?$AAo?$AA?$AA@ 000000018000fca8     LIBCMT:winapinls.obj
 0002:00003cb8       ??_C@_1M@DDMJFMGJ@?$AAa?$AAr?$AA?9?$AAk?$AAw?$AA?$AA@ 000000018000fcb8     LIBCMT:winapinls.obj
 0002:00003cc8       ??_C@_1M@EJALMLHM@?$AAa?$AAr?$AA?9?$AAl?$AAb?$AA?$AA@ 000000018000fcc8     LIBCMT:winapinls.obj
 0002:00003cd8       ??_C@_1M@MOBDBLOC@?$AAa?$AAr?$AA?9?$AAl?$AAy?$AA?$AA@ 000000018000fcd8     LIBCMT:winapinls.obj
 0002:00003ce8       ??_C@_1M@JAOCLHDH@?$AAa?$AAr?$AA?9?$AAm?$AAa?$AA?$AA@ 000000018000fce8     LIBCMT:winapinls.obj
 0002:00003cf8       ??_C@_1M@JHPMKJIE@?$AAa?$AAr?$AA?9?$AAo?$AAm?$AA?$AA@ 000000018000fcf8     LIBCMT:winapinls.obj
 0002:00003d08       ??_C@_1M@OEPGHFNH@?$AAa?$AAr?$AA?9?$AAq?$AAa?$AA?$AA@ 000000018000fd08     LIBCMT:winapinls.obj
 0002:00003d18       ??_C@_1M@KJDONENM@?$AAa?$AAr?$AA?9?$AAs?$AAa?$AA?$AA@ 000000018000fd18     LIBCMT:winapinls.obj
 0002:00003d28       ??_C@_1M@DMJDKLKM@?$AAa?$AAr?$AA?9?$AAs?$AAy?$AA?$AA@ 000000018000fd28     LIBCMT:winapinls.obj
 0002:00003d38       ??_C@_1M@OMFIPEDC@?$AAa?$AAr?$AA?9?$AAt?$AAn?$AA?$AA@ 000000018000fd38     LIBCMT:winapinls.obj
 0002:00003d48       ??_C@_1M@IHMHGAON@?$AAa?$AAr?$AA?9?$AAy?$AAe?$AA?$AA@ 000000018000fd48     LIBCMT:winapinls.obj
 0002:00003d58       ??_C@_1BG@KDCPGJGB@?$AAa?$AAz?$AA?9?$AAa?$AAz?$AA?9?$AAc?$AAy?$AAr?$AAl?$AA?$AA@ 000000018000fd58     LIBCMT:winapinls.obj
 0002:00003d70       ??_C@_1BG@IBCKDDOE@?$AAa?$AAz?$AA?9?$AAa?$AAz?$AA?9?$AAl?$AAa?$AAt?$AAn?$AA?$AA@ 000000018000fd70     LIBCMT:winapinls.obj
 0002:00003d88       ??_C@_1M@EGPFDCPD@?$AAb?$AAe?$AA?9?$AAb?$AAy?$AA?$AA@ 000000018000fd88     LIBCMT:winapinls.obj
 0002:00003d98       ??_C@_1M@PCMGMCGC@?$AAb?$AAg?$AA?9?$AAb?$AAg?$AA?$AA@ 000000018000fd98     LIBCMT:winapinls.obj
 0002:00003da8       ??_C@_1M@BJBMFGOB@?$AAb?$AAn?$AA?9?$AAi?$AAn?$AA?$AA@ 000000018000fda8     LIBCMT:winapinls.obj
 0002:00003db8       ??_C@_1BG@EAKMMACD@?$AAb?$AAs?$AA?9?$AAb?$AAa?$AA?9?$AAl?$AAa?$AAt?$AAn?$AA?$AA@ 000000018000fdb8     LIBCMT:winapinls.obj
 0002:00003dd0       ??_C@_1M@KGADAODK@?$AAc?$AAa?$AA?9?$AAe?$AAs?$AA?$AA@ 000000018000fdd0     LIBCMT:winapinls.obj
 0002:00003de0       ??_C@_1M@COAJPDHI@?$AAc?$AAs?$AA?9?$AAc?$AAz?$AA?$AA@ 000000018000fde0     LIBCMT:winapinls.obj
 0002:00003df0       ??_C@_1M@DHBHFONH@?$AAc?$AAy?$AA?9?$AAg?$AAb?$AA?$AA@ 000000018000fdf0     LIBCMT:winapinls.obj
 0002:00003e00       ??_C@_1M@IMGKELGA@?$AAd?$AAa?$AA?9?$AAd?$AAk?$AA?$AA@ 000000018000fe00     LIBCMT:winapinls.obj
 0002:00003e10       ??_C@_1M@NNDGDNGA@?$AAd?$AAe?$AA?9?$AAa?$AAt?$AA?$AA@ 000000018000fe10     LIBCMT:winapinls.obj
 0002:00003e20       ??_C@_1M@IKDBHEEM@?$AAd?$AAe?$AA?9?$AAc?$AAh?$AA?$AA@ 000000018000fe20     LIBCMT:winapinls.obj
 0002:00003e30       ??_C@_1M@GFFOJMCJ@?$AAd?$AAe?$AA?9?$AAd?$AAe?$AA?$AA@ 000000018000fe30     LIBCMT:winapinls.obj
 0002:00003e40       ??_C@_1M@MDNLKBPM@?$AAd?$AAe?$AA?9?$AAl?$AAi?$AA?$AA@ 000000018000fe40     LIBCMT:winapinls.obj
 0002:00003e50       ??_C@_1M@NJBEEJNL@?$AAd?$AAe?$AA?9?$AAl?$AAu?$AA?$AA@ 000000018000fe50     LIBCMT:winapinls.obj
 0002:00003e60       ??_C@_1O@GNNELBAP@?$AAd?$AAi?$AAv?$AA?9?$AAm?$AAv?$AA?$AA@ 000000018000fe60     LIBCMT:winapinls.obj
 0002:00003e70       ??_C@_1M@EJLEOGAE@?$AAe?$AAl?$AA?9?$AAg?$AAr?$AA?$AA@ 000000018000fe70     LIBCMT:winapinls.obj
 0002:00003e80       ??_C@_1M@GMPONJN@?$AAe?$AAn?$AA?9?$AAa?$AAu?$AA?$AA@ 000000018000fe80     LIBCMT:winapinls.obj
 0002:00003e90       ??_C@_1M@NIDIIPGF@?$AAe?$AAn?$AA?9?$AAb?$AAz?$AA?$AA@ 000000018000fe90     LIBCMT:winapinls.obj
 0002:00003ea0       ??_C@_1M@JEHMIMFO@?$AAe?$AAn?$AA?9?$AAc?$AAa?$AA?$AA@ 000000018000fea0     LIBCMT:winapinls.obj
 0002:00003eb0       ??_C@_1M@IGMJCDLA@?$AAe?$AAn?$AA?9?$AAc?$AAb?$AA?$AA@ 000000018000feb0     LIBCMT:winapinls.obj
 0002:00003ec0       ??_C@_1M@BNFIGBKG@?$AAe?$AAn?$AA?9?$AAg?$AAb?$AA?$AA@ 000000018000fec0     LIBCMT:winapinls.obj
 0002:00003ed0       ??_C@_1M@LKIFDIGP@?$AAe?$AAn?$AA?9?$AAi?$AAe?$AA?$AA@ 000000018000fed0     LIBCMT:winapinls.obj
 0002:00003ee0       ??_C@_1M@PJKFGCCO@?$AAe?$AAn?$AA?9?$AAj?$AAm?$AA?$AA@ 000000018000fee0     LIBCMT:winapinls.obj
 0002:00003ef0       ??_C@_1M@KPPKEPBO@?$AAe?$AAn?$AA?9?$AAn?$AAz?$AA?$AA@ 000000018000fef0     LIBCMT:winapinls.obj
 0002:00003f00       ??_C@_1M@GMDGLDOB@?$AAe?$AAn?$AA?9?$AAp?$AAh?$AA?$AA@ 000000018000ff00     LIBCMT:winapinls.obj
 0002:00003f10       ??_C@_1M@ONGIBJNA@?$AAe?$AAn?$AA?9?$AAt?$AAt?$AA?$AA@ 000000018000ff10     LIBCMT:winapinls.obj
 0002:00003f20       ??_C@_1M@LLODPCMM@?$AAe?$AAn?$AA?9?$AAu?$AAs?$AA?$AA@ 000000018000ff20     LIBCMT:winapinls.obj
 0002:00003f30       ??_C@_1M@LAKFNPAN@?$AAe?$AAn?$AA?9?$AAz?$AAa?$AA?$AA@ 000000018000ff30     LIBCMT:winapinls.obj
 0002:00003f40       ??_C@_1M@MFNHNHEO@?$AAe?$AAn?$AA?9?$AAz?$AAw?$AA?$AA@ 000000018000ff40     LIBCMT:winapinls.obj
 0002:00003f50       ??_C@_1M@EJEINPHM@?$AAe?$AAs?$AA?9?$AAa?$AAr?$AA?$AA@ 000000018000ff50     LIBCMT:winapinls.obj
 0002:00003f60       ??_C@_1M@GNKPCCJA@?$AAe?$AAs?$AA?9?$AAb?$AAo?$AA?$AA@ 000000018000ff60     LIBCMT:winapinls.obj
 0002:00003f70       ??_C@_1M@LEEGFONL@?$AAe?$AAs?$AA?9?$AAc?$AAl?$AA?$AA@ 000000018000ff70     LIBCMT:winapinls.obj
 0002:00003f80       ??_C@_1M@KGPDPBDF@?$AAe?$AAs?$AA?9?$AAc?$AAo?$AA?$AA@ 000000018000ff80     LIBCMT:winapinls.obj
 0002:00003f90       ??_C@_1M@EIAHOHH@?$AAe?$AAs?$AA?9?$AAc?$AAr?$AA?$AA@ 000000018000ff90     LIBCMT:winapinls.obj
 0002:00003fa0       ??_C@_1M@LLPGMBIN@?$AAe?$AAs?$AA?9?$AAd?$AAo?$AA?$AA@ 000000018000ffa0     LIBCMT:winapinls.obj
 0002:00003fb0       ??_C@_1M@DKHMKNJA@?$AAe?$AAs?$AA?9?$AAe?$AAc?$AA?$AA@ 000000018000ffb0     LIBCMT:winapinls.obj
 0002:00003fc0       ??_C@_1M@GKGFPKAP@?$AAe?$AAs?$AA?9?$AAe?$AAs?$AA?$AA@ 000000018000ffc0     LIBCMT:winapinls.obj
 0002:00003fd0       ??_C@_1M@LKHKGDLN@?$AAe?$AAs?$AA?9?$AAg?$AAt?$AA?$AA@ 000000018000ffd0     LIBCMT:winapinls.obj
 0002:00003fe0       ??_C@_1M@HEIIGGJD@?$AAe?$AAs?$AA?9?$AAh?$AAn?$AA?$AA@ 000000018000ffe0     LIBCMT:winapinls.obj
 0002:00003ff0       ??_C@_1M@FBDHPPGD@?$AAe?$AAs?$AA?9?$AAm?$AAx?$AA?$AA@ 000000018000fff0     LIBCMT:winapinls.obj
 0002:00004000       ??_C@_1M@DPAGLNDH@?$AAe?$AAs?$AA?9?$AAn?$AAi?$AA?$AA@ 0000000180010000     LIBCMT:winapinls.obj
 0002:00004010       ??_C@_1M@MDGOPGDD@?$AAe?$AAs?$AA?9?$AAp?$AAa?$AA?$AA@ 0000000180010010     LIBCMT:winapinls.obj
 0002:00004020       ??_C@_1M@EMAMGBGE@?$AAe?$AAs?$AA?9?$AAp?$AAe?$AA?$AA@ 0000000180010020     LIBCMT:winapinls.obj
 0002:00004030       ??_C@_1M@IBMCAOEC@?$AAe?$AAs?$AA?9?$AAp?$AAr?$AA?$AA@ 0000000180010030     LIBCMT:winapinls.obj
 0002:00004040       ??_C@_1M@FGMDIJED@?$AAe?$AAs?$AA?9?$AAp?$AAy?$AA?$AA@ 0000000180010040     LIBCMT:winapinls.obj
 0002:00004050       ??_C@_1M@IIDEOLLL@?$AAe?$AAs?$AA?9?$AAs?$AAv?$AA?$AA@ 0000000180010050     LIBCMT:winapinls.obj
 0002:00004060       ??_C@_1M@GAOBIPA@?$AAe?$AAs?$AA?9?$AAu?$AAy?$AA?$AA@ 0000000180010060     LIBCMT:winapinls.obj
 0002:00004070       ??_C@_1M@JKFFICHJ@?$AAe?$AAs?$AA?9?$AAv?$AAe?$AA?$AA@ 0000000180010070     LIBCMT:winapinls.obj
 0002:00004080       ??_C@_1M@PNMLOJDF@?$AAe?$AAt?$AA?9?$AAe?$AAe?$AA?$AA@ 0000000180010080     LIBCMT:winapinls.obj
 0002:00004090       ??_C@_1M@GHHLIKEI@?$AAe?$AAu?$AA?9?$AAe?$AAs?$AA?$AA@ 0000000180010090     LIBCMT:winapinls.obj
 0002:000040a0       ??_C@_1M@PBNONODE@?$AAf?$AAa?$AA?9?$AAi?$AAr?$AA?$AA@ 00000001800100a0     LIBCMT:winapinls.obj
 0002:000040b0       ??_C@_1M@JEEHPMIL@?$AAf?$AAi?$AA?9?$AAf?$AAi?$AA?$AA@ 00000001800100b0     LIBCMT:winapinls.obj
 0002:000040c0       ??_C@_1M@LMDCNDBA@?$AAf?$AAo?$AA?9?$AAf?$AAo?$AA?$AA@ 00000001800100c0     LIBCMT:winapinls.obj
 0002:000040d0       ??_C@_1M@JKEOHLDK@?$AAf?$AAr?$AA?9?$AAb?$AAe?$AA?$AA@ 00000001800100d0     LIBCMT:winapinls.obj
 0002:000040e0       ??_C@_1M@NOHADPMI@?$AAf?$AAr?$AA?9?$AAc?$AAa?$AA?$AA@ 00000001800100e0     LIBCMT:winapinls.obj
 0002:000040f0       ??_C@_1M@KDHIHAEC@?$AAf?$AAr?$AA?9?$AAc?$AAh?$AA?$AA@ 00000001800100f0     LIBCMT:winapinls.obj
 0002:00004100       ??_C@_1M@MMBBFGAK@?$AAf?$AAr?$AA?9?$AAf?$AAr?$AA?$AA@ 0000000180010100     LIBCMT:winapinls.obj
 0002:00004110       ??_C@_1M@PAFNENNF@?$AAf?$AAr?$AA?9?$AAl?$AAu?$AA?$AA@ 0000000180010110     LIBCMT:winapinls.obj
 0002:00004120       ??_C@_1M@EOHDJGDD@?$AAf?$AAr?$AA?9?$AAm?$AAc?$AA?$AA@ 0000000180010120     LIBCMT:winapinls.obj
 0002:00004130       ??_C@_1M@FAPLLOPF@?$AAg?$AAl?$AA?9?$AAe?$AAs?$AA?$AA@ 0000000180010130     LIBCMT:winapinls.obj
 0002:00004140       ??_C@_1M@FOPBFLOO@?$AAg?$AAu?$AA?9?$AAi?$AAn?$AA?$AA@ 0000000180010140     LIBCMT:winapinls.obj
 0002:00004150       ??_C@_1M@KBMCINPM@?$AAh?$AAe?$AA?9?$AAi?$AAl?$AA?$AA@ 0000000180010150     LIBCMT:winapinls.obj
 0002:00004160       ??_C@_1M@BBPHKFPJ@?$AAh?$AAi?$AA?9?$AAi?$AAn?$AA?$AA@ 0000000180010160     LIBCMT:winapinls.obj
 0002:00004170       ??_C@_1M@PMBNDPHD@?$AAh?$AAr?$AA?9?$AAb?$AAa?$AA?$AA@ 0000000180010170     LIBCMT:winapinls.obj
 0002:00004180       ??_C@_1M@BPCKOEGE@?$AAh?$AAr?$AA?9?$AAh?$AAr?$AA?$AA@ 0000000180010180     LIBCMT:winapinls.obj
 0002:00004190       ??_C@_1M@GACBMHKE@?$AAh?$AAu?$AA?9?$AAh?$AAu?$AA?$AA@ 0000000180010190     LIBCMT:winapinls.obj
 0002:000041a0       ??_C@_1M@MILPAJJC@?$AAh?$AAy?$AA?9?$AAa?$AAm?$AA?$AA@ 00000001800101a0     LIBCMT:winapinls.obj
 0002:000041b0       ??_C@_1M@BABBICEC@?$AAi?$AAd?$AA?9?$AAi?$AAd?$AA?$AA@ 00000001800101b0     LIBCMT:winapinls.obj
 0002:000041c0       ??_C@_1M@BIKNHHPF@?$AAi?$AAs?$AA?9?$AAi?$AAs?$AA?$AA@ 00000001800101c0     LIBCMT:winapinls.obj
 0002:000041d0       ??_C@_1M@NMPCJPHE@?$AAi?$AAt?$AA?9?$AAc?$AAh?$AA?$AA@ 00000001800101d0     LIBCMT:winapinls.obj
 0002:000041e0       ??_C@_1M@GHKGFEDF@?$AAi?$AAt?$AA?9?$AAi?$AAt?$AA?$AA@ 00000001800101e0     LIBCMT:winapinls.obj
 0002:000041f0       ??_C@_1M@NIEJCJJA@?$AAj?$AAa?$AA?9?$AAj?$AAp?$AA?$AA@ 00000001800101f0     LIBCMT:winapinls.obj
 0002:00004200       ??_C@_1M@JILFNBIM@?$AAk?$AAa?$AA?9?$AAg?$AAe?$AA?$AA@ 0000000180010200     LIBCMT:winapinls.obj
 0002:00004210       ??_C@_1M@PACPMGPH@?$AAk?$AAk?$AA?9?$AAk?$AAz?$AA?$AA@ 0000000180010210     LIBCMT:winapinls.obj
 0002:00004220       ??_C@_1M@IELFGMHA@?$AAk?$AAn?$AA?9?$AAi?$AAn?$AA?$AA@ 0000000180010220     LIBCMT:winapinls.obj
 0002:00004230       ??_C@_1O@IBBJHCH@?$AAk?$AAo?$AAk?$AA?9?$AAi?$AAn?$AA?$AA@ 0000000180010230     LIBCMT:winapinls.obj
 0002:00004240       ??_C@_1M@DMHAEOGC@?$AAk?$AAo?$AA?9?$AAk?$AAr?$AA?$AA@ 0000000180010240     LIBCMT:winapinls.obj
 0002:00004250       ??_C@_1M@HBAHBIGA@?$AAk?$AAy?$AA?9?$AAk?$AAg?$AA?$AA@ 0000000180010250     LIBCMT:winapinls.obj
 0002:00004260       ??_C@_1M@KPMILCJG@?$AAl?$AAt?$AA?9?$AAl?$AAt?$AA?$AA@ 0000000180010260     LIBCMT:winapinls.obj
 0002:00004270       ??_C@_1M@BDEKKCA@?$AAl?$AAv?$AA?9?$AAl?$AAv?$AA?$AA@ 0000000180010270     LIBCMT:winapinls.obj
 0002:00004280       ??_C@_1M@ELCKCCJJ@?$AAm?$AAi?$AA?9?$AAn?$AAz?$AA?$AA@ 0000000180010280     LIBCMT:winapinls.obj
 0002:00004290       ??_C@_1M@CBOOLAPA@?$AAm?$AAk?$AA?9?$AAm?$AAk?$AA?$AA@ 0000000180010290     LIBCMT:winapinls.obj
 0002:000042a0       ??_C@_1M@GPHNBJKN@?$AAm?$AAl?$AA?9?$AAi?$AAn?$AA?$AA@ 00000001800102a0     LIBCMT:winapinls.obj
 0002:000042b0       ??_C@_1M@PABJILIG@?$AAm?$AAn?$AA?9?$AAm?$AAn?$AA?$AA@ 00000001800102b0     LIBCMT:winapinls.obj
 0002:000042c0       ??_C@_1M@FGBKKIPG@?$AAm?$AAr?$AA?9?$AAi?$AAn?$AA?$AA@ 00000001800102c0     LIBCMT:winapinls.obj
 0002:000042d0       ??_C@_1M@NDBPDDAL@?$AAm?$AAs?$AA?9?$AAb?$AAn?$AA?$AA@ 00000001800102d0     LIBCMT:winapinls.obj
 0002:000042e0       ??_C@_1M@OPIHOOPI@?$AAm?$AAs?$AA?9?$AAm?$AAy?$AA?$AA@ 00000001800102e0     LIBCMT:winapinls.obj
 0002:000042f0       ??_C@_1M@PPDBCNFM@?$AAm?$AAt?$AA?9?$AAm?$AAt?$AA?$AA@ 00000001800102f0     LIBCMT:winapinls.obj
 0002:00004300       ??_C@_1M@KDJDKMDD@?$AAn?$AAb?$AA?9?$AAn?$AAo?$AA?$AA@ 0000000180010300     LIBCMT:winapinls.obj
 0002:00004310       ??_C@_1M@KFCFLMJP@?$AAn?$AAl?$AA?9?$AAb?$AAe?$AA?$AA@ 0000000180010310     LIBCMT:winapinls.obj
 0002:00004320       ??_C@_1M@KPOPDDGO@?$AAn?$AAl?$AA?9?$AAn?$AAl?$AA?$AA@ 0000000180010320     LIBCMT:winapinls.obj
 0002:00004330       ??_C@_1M@LJKPEMLN@?$AAn?$AAn?$AA?9?$AAn?$AAo?$AA?$AA@ 0000000180010330     LIBCMT:winapinls.obj
 0002:00004340       ??_C@_1M@BDGHHBFL@?$AAn?$AAs?$AA?9?$AAz?$AAa?$AA?$AA@ 0000000180010340     LIBCMT:winapinls.obj
 0002:00004350       ??_C@_1M@IDEHOAP@?$AAp?$AAa?$AA?9?$AAi?$AAn?$AA?$AA@ 0000000180010350     LIBCMT:winapinls.obj
 0002:00004360       ??_C@_1M@HDBKGOGH@?$AAp?$AAl?$AA?9?$AAp?$AAl?$AA?$AA@ 0000000180010360     LIBCMT:winapinls.obj
 0002:00004370       ??_C@_1M@LJLLCMEH@?$AAp?$AAt?$AA?9?$AAb?$AAr?$AA?$AA@ 0000000180010370     LIBCMT:winapinls.obj
 0002:00004380       ??_C@_1M@NCMONAAL@?$AAp?$AAt?$AA?9?$AAp?$AAt?$AA?$AA@ 0000000180010380     LIBCMT:winapinls.obj
 0002:00004390       ??_C@_1O@EAKMAJDN@?$AAq?$AAu?$AAz?$AA?9?$AAb?$AAo?$AA?$AA@ 0000000180010390     LIBCMT:winapinls.obj
 0002:000043a0       ??_C@_1O@BHHPIGDN@?$AAq?$AAu?$AAz?$AA?9?$AAe?$AAc?$AA?$AA@ 00000001800103a0     LIBCMT:winapinls.obj
 0002:000043b0       ??_C@_1O@GBAPEKMJ@?$AAq?$AAu?$AAz?$AA?9?$AAp?$AAe?$AA?$AA@ 00000001800103b0     LIBCMT:winapinls.obj
 0002:000043c0       ??_C@_1M@CLGLEFBO@?$AAr?$AAo?$AA?9?$AAr?$AAo?$AA?$AA@ 00000001800103c0     LIBCMT:winapinls.obj
 0002:000043d0       ??_C@_1M@CEEDODME@?$AAr?$AAu?$AA?9?$AAr?$AAu?$AA?$AA@ 00000001800103d0     LIBCMT:winapinls.obj
 0002:000043e0       ??_C@_1M@HPKKKMPP@?$AAs?$AAa?$AA?9?$AAi?$AAn?$AA?$AA@ 00000001800103e0     LIBCMT:winapinls.obj
 0002:000043f0       ??_C@_1M@BKMAIGOJ@?$AAs?$AAe?$AA?9?$AAf?$AAi?$AA?$AA@ 00000001800103f0     LIBCMT:winapinls.obj
 0002:00004400       ??_C@_1M@NDPIFLFI@?$AAs?$AAe?$AA?9?$AAn?$AAo?$AA?$AA@ 0000000180010400     LIBCMT:winapinls.obj
 0002:00004410       ??_C@_1M@DANKKHJ@?$AAs?$AAe?$AA?9?$AAs?$AAe?$AA?$AA@ 0000000180010410     LIBCMT:winapinls.obj
 0002:00004420       ??_C@_1M@PNBLONPJ@?$AAs?$AAk?$AA?9?$AAs?$AAk?$AA?$AA@ 0000000180010420     LIBCMT:winapinls.obj
 0002:00004430       ??_C@_1M@LFMODOAL@?$AAs?$AAl?$AA?9?$AAs?$AAi?$AA?$AA@ 0000000180010430     LIBCMT:winapinls.obj
 0002:00004440       ??_C@_1O@DFKOMPG@?$AAs?$AAm?$AAa?$AA?9?$AAn?$AAo?$AA?$AA@ 0000000180010440     LIBCMT:winapinls.obj
 0002:00004450       ??_C@_1O@NDKPBNNH@?$AAs?$AAm?$AAa?$AA?9?$AAs?$AAe?$AA?$AA@ 0000000180010450     LIBCMT:winapinls.obj
 0002:00004460       ??_C@_1O@PLLKBHAB@?$AAs?$AAm?$AAj?$AA?9?$AAn?$AAo?$AA?$AA@ 0000000180010460     LIBCMT:winapinls.obj
 0002:00004470       ??_C@_1O@CLEPOGCA@?$AAs?$AAm?$AAj?$AA?9?$AAs?$AAe?$AA?$AA@ 0000000180010470     LIBCMT:winapinls.obj
 0002:00004480       ??_C@_1O@DLGJGKMK@?$AAs?$AAm?$AAn?$AA?9?$AAf?$AAi?$AA?$AA@ 0000000180010480     LIBCMT:winapinls.obj
 0002:00004490       ??_C@_1O@OJDJGAJC@?$AAs?$AAm?$AAs?$AA?9?$AAf?$AAi?$AA?$AA@ 0000000180010490     LIBCMT:winapinls.obj
 0002:000044a0       ??_C@_1M@BOFOGHPB@?$AAs?$AAq?$AA?9?$AAa?$AAl?$AA?$AA@ 00000001800104a0     LIBCMT:winapinls.obj
 0002:000044b0       ??_C@_1BG@LJBBIPGB@?$AAs?$AAr?$AA?9?$AAb?$AAa?$AA?9?$AAc?$AAy?$AAr?$AAl?$AA?$AA@ 00000001800104b0     LIBCMT:winapinls.obj
 0002:000044c8       ??_C@_1BG@JLBENFOE@?$AAs?$AAr?$AA?9?$AAb?$AAa?$AA?9?$AAl?$AAa?$AAt?$AAn?$AA?$AA@ 00000001800104c8     LIBCMT:winapinls.obj
 0002:000044e0       ??_C@_1BG@KODPNHE@?$AAs?$AAr?$AA?9?$AAs?$AAp?$AA?9?$AAc?$AAy?$AAr?$AAl?$AA?$AA@ 00000001800104e0     LIBCMT:winapinls.obj
 0002:000044f8       ??_C@_1BG@CIOGKHPB@?$AAs?$AAr?$AA?9?$AAs?$AAp?$AA?9?$AAl?$AAa?$AAt?$AAn?$AA?$AA@ 00000001800104f8     LIBCMT:winapinls.obj
 0002:00004510       ??_C@_1M@NGFJLMAC@?$AAs?$AAv?$AA?9?$AAf?$AAi?$AA?$AA@ 0000000180010510     LIBCMT:winapinls.obj
 0002:00004520       ??_C@_1M@MPJEJAJC@?$AAs?$AAv?$AA?9?$AAs?$AAe?$AA?$AA@ 0000000180010520     LIBCMT:winapinls.obj
 0002:00004530       ??_C@_1M@MPNDHLFK@?$AAs?$AAw?$AA?9?$AAk?$AAe?$AA?$AA@ 0000000180010530     LIBCMT:winapinls.obj
 0002:00004540       ??_C@_1O@KOHBJJI@?$AAs?$AAy?$AAr?$AA?9?$AAs?$AAy?$AA?$AA@ 0000000180010540     LIBCMT:winapinls.obj
 0002:00004550       ??_C@_1M@LDCEFHA@?$AAt?$AAa?$AA?9?$AAi?$AAn?$AA?$AA@ 0000000180010550     LIBCMT:winapinls.obj
 0002:00004560       ??_C@_1M@CNJOFAK@?$AAt?$AAe?$AA?9?$AAi?$AAn?$AA?$AA@ 0000000180010560     LIBCMT:winapinls.obj
 0002:00004570       ??_C@_1M@GNAECACD@?$AAt?$AAh?$AA?9?$AAt?$AAh?$AA?$AA@ 0000000180010570     LIBCMT:winapinls.obj
 0002:00004580       ??_C@_1M@CHBIHOJO@?$AAt?$AAn?$AA?9?$AAz?$AAa?$AA?$AA@ 0000000180010580     LIBCMT:winapinls.obj
 0002:00004590       ??_C@_1M@GCCMIGPJ@?$AAt?$AAr?$AA?9?$AAt?$AAr?$AA?$AA@ 0000000180010590     LIBCMT:winapinls.obj
 0002:000045a0       ??_C@_1M@CELMCNBK@?$AAt?$AAt?$AA?9?$AAr?$AAu?$AA?$AA@ 00000001800105a0     LIBCMT:winapinls.obj
 0002:000045b0       ??_C@_1M@KLMCELGA@?$AAu?$AAk?$AA?9?$AAu?$AAa?$AA?$AA@ 00000001800105b0     LIBCMT:winapinls.obj
 0002:000045c0       ??_C@_1M@EPAJJAJF@?$AAu?$AAr?$AA?9?$AAp?$AAk?$AA?$AA@ 00000001800105c0     LIBCMT:winapinls.obj
 0002:000045d0       ??_C@_1BG@GEGPMCDJ@?$AAu?$AAz?$AA?9?$AAu?$AAz?$AA?9?$AAc?$AAy?$AAr?$AAl?$AA?$AA@ 00000001800105d0     LIBCMT:winapinls.obj
 0002:000045e8       ??_C@_1BG@EGGKJILM@?$AAu?$AAz?$AA?9?$AAu?$AAz?$AA?9?$AAl?$AAa?$AAt?$AAn?$AA?$AA@ 00000001800105e8     LIBCMT:winapinls.obj
 0002:00004600       ??_C@_1M@GFOCLFF@?$AAv?$AAi?$AA?9?$AAv?$AAn?$AA?$AA@ 0000000180010600     LIBCMT:winapinls.obj
 0002:00004610       ??_C@_1M@CPAMEDFI@?$AAx?$AAh?$AA?9?$AAz?$AAa?$AA?$AA@ 0000000180010610     LIBCMT:winapinls.obj
 0002:00004620       ??_C@_1O@EBKIFIGN@?$AAz?$AAh?$AA?9?$AAc?$AAh?$AAs?$AA?$AA@ 0000000180010620     LIBCMT:winapinls.obj
 0002:00004630       ??_C@_1O@NMHPGANE@?$AAz?$AAh?$AA?9?$AAc?$AAh?$AAt?$AA?$AA@ 0000000180010630     LIBCMT:winapinls.obj
 0002:00004640       ??_C@_1M@LPINJOMC@?$AAz?$AAh?$AA?9?$AAc?$AAn?$AA?$AA@ 0000000180010640     LIBCMT:winapinls.obj
 0002:00004650       ??_C@_1M@OCJEJODD@?$AAz?$AAh?$AA?9?$AAh?$AAk?$AA?$AA@ 0000000180010650     LIBCMT:winapinls.obj
 0002:00004660       ??_C@_1M@DNDLJINH@?$AAz?$AAh?$AA?9?$AAm?$AAo?$AA?$AA@ 0000000180010660     LIBCMT:winapinls.obj
 0002:00004670       ??_C@_1M@MBFDNDND@?$AAz?$AAh?$AA?9?$AAs?$AAg?$AA?$AA@ 0000000180010670     LIBCMT:winapinls.obj
 0002:00004680       ??_C@_1M@IMEPLEPE@?$AAz?$AAh?$AA?9?$AAt?$AAw?$AA?$AA@ 0000000180010680     LIBCMT:winapinls.obj
 0002:00004690       ??_C@_1M@BBGHNHJP@?$AAz?$AAu?$AA?9?$AAz?$AAa?$AA?$AA@ 0000000180010690     LIBCMT:winapinls.obj
 0002:00004810       ??_C@_1FK@PGACCAFB@?$AAR?$AA6?$AA0?$AA0?$AA2?$AA?$AN?$AA?6?$AA?9?$AA?5?$AAf?$AAl?$AAo?$AAa?$AAt?$AAi?$AAn?$AAg?$AA?5?$AAp?$AAo?$AAi?$AAn?$AAt?$AA?5?$AAs?$AAu?$AAp?$AAp?$AAo?$AAr?$AAt?$AA?5@ 0000000180010810     LIBCMT:crt0msg.obj
 0002:00004870       ??_C@_1FE@LLNEDJMD@?$AAR?$AA6?$AA0?$AA0?$AA8?$AA?$AN?$AA?6?$AA?9?$AA?5?$AAn?$AAo?$AAt?$AA?5?$AAe?$AAn?$AAo?$AAu?$AAg?$AAh?$AA?5?$AAs?$AAp?$AAa?$AAc?$AAe?$AA?5?$AAf?$AAo?$AAr?$AA?5?$AAa?$AAr@ 0000000180010870     LIBCMT:crt0msg.obj
 0002:000048d0       ??_C@_1FI@HONFMGBI@?$AAR?$AA6?$AA0?$AA0?$AA9?$AA?$AN?$AA?6?$AA?9?$AA?5?$AAn?$AAo?$AAt?$AA?5?$AAe?$AAn?$AAo?$AAu?$AAg?$AAh?$AA?5?$AAs?$AAp?$AAa?$AAc?$AAe?$AA?5?$AAf?$AAo?$AAr?$AA?5?$AAe?$AAn@ 00000001800108d0     LIBCMT:crt0msg.obj
 0002:00004930       ??_C@_1EG@BEHAGFJD@?$AAR?$AA6?$AA0?$AA1?$AA0?$AA?$AN?$AA?6?$AA?9?$AA?5?$AAa?$AAb?$AAo?$AAr?$AAt?$AA?$CI?$AA?$CJ?$AA?5?$AAh?$AAa?$AAs?$AA?5?$AAb?$AAe?$AAe?$AAn?$AA?5?$AAc?$AAa?$AAl?$AAl?$AAe?$AAd@ 0000000180010930     LIBCMT:crt0msg.obj
 0002:00004980       ??_C@_1FI@LOGNIKDM@?$AAR?$AA6?$AA0?$AA1?$AA6?$AA?$AN?$AA?6?$AA?9?$AA?5?$AAn?$AAo?$AAt?$AA?5?$AAe?$AAn?$AAo?$AAu?$AAg?$AAh?$AA?5?$AAs?$AAp?$AAa?$AAc?$AAe?$AA?5?$AAf?$AAo?$AAr?$AA?5?$AAt?$AAh@ 0000000180010980     LIBCMT:crt0msg.obj
 0002:000049e0       ??_C@_1FK@BEOGODMC@?$AAR?$AA6?$AA0?$AA1?$AA7?$AA?$AN?$AA?6?$AA?9?$AA?5?$AAu?$AAn?$AAe?$AAx?$AAp?$AAe?$AAc?$AAt?$AAe?$AAd?$AA?5?$AAm?$AAu?$AAl?$AAt?$AAi?$AAt?$AAh?$AAr?$AAe?$AAa?$AAd?$AA?5@ 00000001800109e0     LIBCMT:crt0msg.obj
 0002:00004a40       ??_C@_1EC@JIBHAOPH@?$AAR?$AA6?$AA0?$AA1?$AA8?$AA?$AN?$AA?6?$AA?9?$AA?5?$AAu?$AAn?$AAe?$AAx?$AAp?$AAe?$AAc?$AAt?$AAe?$AAd?$AA?5?$AAh?$AAe?$AAa?$AAp?$AA?5?$AAe?$AAr?$AAr?$AAo?$AAr?$AA?$AN?$AA?6@ 0000000180010a40     LIBCMT:crt0msg.obj
 0002:00004a90       ??_C@_1FC@ECHBIFBC@?$AAR?$AA6?$AA0?$AA1?$AA9?$AA?$AN?$AA?6?$AA?9?$AA?5?$AAu?$AAn?$AAa?$AAb?$AAl?$AAe?$AA?5?$AAt?$AAo?$AA?5?$AAo?$AAp?$AAe?$AAn?$AA?5?$AAc?$AAo?$AAn?$AAs?$AAo?$AAl?$AAe?$AA?5@ 0000000180010a90     LIBCMT:crt0msg.obj
 0002:00004af0       ??_C@_1GK@FHCKBEFA@?$AAR?$AA6?$AA0?$AA2?$AA4?$AA?$AN?$AA?6?$AA?9?$AA?5?$AAn?$AAo?$AAt?$AA?5?$AAe?$AAn?$AAo?$AAu?$AAg?$AAh?$AA?5?$AAs?$AAp?$AAa?$AAc?$AAe?$AA?5?$AAf?$AAo?$AAr?$AA?5?$AA_?$AAo@ 0000000180010af0     LIBCMT:crt0msg.obj
 0002:00004b60       ??_C@_1EM@MAADIHMB@?$AAR?$AA6?$AA0?$AA2?$AA5?$AA?$AN?$AA?6?$AA?9?$AA?5?$AAp?$AAu?$AAr?$AAe?$AA?5?$AAv?$AAi?$AAr?$AAt?$AAu?$AAa?$AAl?$AA?5?$AAf?$AAu?$AAn?$AAc?$AAt?$AAi?$AAo?$AAn?$AA?5?$AAc@ 0000000180010b60     LIBCMT:crt0msg.obj
 0002:00004bb0       ??_C@_1GK@MCAAGJMO@?$AAR?$AA6?$AA0?$AA2?$AA6?$AA?$AN?$AA?6?$AA?9?$AA?5?$AAn?$AAo?$AAt?$AA?5?$AAe?$AAn?$AAo?$AAu?$AAg?$AAh?$AA?5?$AAs?$AAp?$AAa?$AAc?$AAe?$AA?5?$AAf?$AAo?$AAr?$AA?5?$AAs?$AAt@ 0000000180010bb0     LIBCMT:crt0msg.obj
 0002:00004c20       ??_C@_1GK@MFGOKLAG@?$AAR?$AA6?$AA0?$AA2?$AA7?$AA?$AN?$AA?6?$AA?9?$AA?5?$AAn?$AAo?$AAt?$AA?5?$AAe?$AAn?$AAo?$AAu?$AAg?$AAh?$AA?5?$AAs?$AAp?$AAa?$AAc?$AAe?$AA?5?$AAf?$AAo?$AAr?$AA?5?$AAl?$AAo@ 0000000180010c20     LIBCMT:crt0msg.obj
 0002:00004c90       ??_C@_1EK@HHFLMAOL@?$AAR?$AA6?$AA0?$AA2?$AA8?$AA?$AN?$AA?6?$AA?9?$AA?5?$AAu?$AAn?$AAa?$AAb?$AAl?$AAe?$AA?5?$AAt?$AAo?$AA?5?$AAi?$AAn?$AAi?$AAt?$AAi?$AAa?$AAl?$AAi?$AAz?$AAe?$AA?5?$AAh?$AAe@ 0000000180010c90     LIBCMT:crt0msg.obj
 0002:00004ce0       ??_C@_1DO@BMFCDCD@?$AAR?$AA6?$AA0?$AA3?$AA0?$AA?$AN?$AA?6?$AA?9?$AA?5?$AAC?$AAR?$AAT?$AA?5?$AAn?$AAo?$AAt?$AA?5?$AAi?$AAn?$AAi?$AAt?$AAi?$AAa?$AAl?$AAi?$AAz?$AAe?$AAd?$AA?$AN?$AA?6?$AA?$AA@ 0000000180010ce0     LIBCMT:crt0msg.obj
 0002:00004d20       ??_C@_1MG@ENCOOIDF@?$AAR?$AA6?$AA0?$AA3?$AA1?$AA?$AN?$AA?6?$AA?9?$AA?5?$AAA?$AAt?$AAt?$AAe?$AAm?$AAp?$AAt?$AA?5?$AAt?$AAo?$AA?5?$AAi?$AAn?$AAi?$AAt?$AAi?$AAa?$AAl?$AAi?$AAz?$AAe?$AA?5?$AAt@ 0000000180010d20     LIBCMT:crt0msg.obj
 0002:00004df0       ??_C@_1GG@GOPILAJP@?$AAR?$AA6?$AA0?$AA3?$AA2?$AA?$AN?$AA?6?$AA?9?$AA?5?$AAn?$AAo?$AAt?$AA?5?$AAe?$AAn?$AAo?$AAu?$AAg?$AAh?$AA?5?$AAs?$AAp?$AAa?$AAc?$AAe?$AA?5?$AAf?$AAo?$AAr?$AA?5?$AAl?$AAo@ 0000000180010df0     LIBCMT:crt0msg.obj
 0002:00004e60       ??_C@_1BOO@KGEDBGAJ@?$AAR?$AA6?$AA0?$AA3?$AA3?$AA?$AN?$AA?6?$AA?9?$AA?5?$AAA?$AAt?$AAt?$AAe?$AAm?$AAp?$AAt?$AA?5?$AAt?$AAo?$AA?5?$AAu?$AAs?$AAe?$AA?5?$AAM?$AAS?$AAI?$AAL?$AA?5?$AAc?$AAo?$AAd@ 0000000180010e60     LIBCMT:crt0msg.obj
 0002:00005050       ??_C@_1GG@MKFPEKFO@?$AAR?$AA6?$AA0?$AA3?$AA4?$AA?$AN?$AA?6?$AA?9?$AA?5?$AAi?$AAn?$AAc?$AAo?$AAn?$AAs?$AAi?$AAs?$AAt?$AAe?$AAn?$AAt?$AA?5?$AAo?$AAn?$AAe?$AAx?$AAi?$AAt?$AA?5?$AAb?$AAe?$AAg@ 0000000180011050     LIBCMT:crt0msg.obj
 0002:000050b8       ??_C@_1BO@BFCDCGC@?$AAD?$AAO?$AAM?$AAA?$AAI?$AAN?$AA?5?$AAe?$AAr?$AAr?$AAo?$AAr?$AA?$AN?$AA?6?$AA?$AA@ 00000001800110b8     LIBCMT:crt0msg.obj
 0002:000050d8       ??_C@_1BK@KMOMNAAI@?$AAS?$AAI?$AAN?$AAG?$AA?5?$AAe?$AAr?$AAr?$AAo?$AAr?$AA?$AN?$AA?6?$AA?$AA@ 00000001800110d8     LIBCMT:crt0msg.obj
 0002:000050f8       ??_C@_1BM@JBBEPPHI@?$AAT?$AAL?$AAO?$AAS?$AAS?$AA?5?$AAe?$AAr?$AAr?$AAo?$AAr?$AA?$AN?$AA?6?$AA?$AA@ 00000001800110f8     LIBCMT:crt0msg.obj
 0002:00005114       ??_C@_15JNBOKNOG@?$AA?$AN?$AA?6?$AA?$AA@ 0000000180011114     LIBCMT:crt0msg.obj
 0002:00005120       ??_C@_1BO@BKOMIGKJ@?$AAr?$AAu?$AAn?$AAt?$AAi?$AAm?$AAe?$AA?5?$AAe?$AAr?$AAr?$AAo?$AAr?$AA?5?$AA?$AA@ 0000000180011120     LIBCMT:crt0msg.obj
 0002:00005140       ??_C@_1DE@JNGNBFGO@?$AAR?$AAu?$AAn?$AAt?$AAi?$AAm?$AAe?$AA?5?$AAE?$AAr?$AAr?$AAo?$AAr?$AA?$CB?$AA?6?$AA?6?$AAP?$AAr?$AAo?$AAg?$AAr?$AAa?$AAm?$AA?3?$AA?5?$AA?$AA@ 0000000180011140     LIBCMT:crt0msg.obj
 0002:00005178       ??_C@_1CO@EAEJAADC@?$AA?$DM?$AAp?$AAr?$AAo?$AAg?$AAr?$AAa?$AAm?$AA?5?$AAn?$AAa?$AAm?$AAe?$AA?5?$AAu?$AAn?$AAk?$AAn?$AAo?$AAw?$AAn?$AA?$DO?$AA?$AA@ 0000000180011178     LIBCMT:crt0msg.obj
 0002:000051a8       ??_C@_17LGKOMLJ@?$AA?4?$AA?4?$AA?4?$AA?$AA@ 00000001800111a8     LIBCMT:crt0msg.obj
 0002:000051b0       ??_C@_15IABLJNFO@?$AA?6?$AA?6?$AA?$AA@ 00000001800111b0     LIBCMT:crt0msg.obj
 0002:000051c0       ??_C@_1EK@MBDPDCGA@?$AAM?$AAi?$AAc?$AAr?$AAo?$AAs?$AAo?$AAf?$AAt?$AA?5?$AAV?$AAi?$AAs?$AAu?$AAa?$AAl?$AA?5?$AAC?$AA?$CL?$AA?$CL?$AA?5?$AAR?$AAu?$AAn?$AAt?$AAi?$AAm?$AAe?$AA?5?$AAL?$AAi?$AAb@ 00000001800111c0     LIBCMT:crt0msg.obj
 0002:00005210       ??_C@_1BG@GOEBHBDC@?$AAU?$AAS?$AAE?$AAR?$AA3?$AA2?$AA?4?$AAD?$AAL?$AAL?$AA?$AA@ 0000000180011210     LIBCMT:crtmboxw.obj
 0002:00005228       ??_C@_0M@DLDCCGNP@MessageBoxW?$AA@ 0000000180011228     LIBCMT:crtmboxw.obj
 0002:00005238       ??_C@_0BA@HNOPNCHB@GetActiveWindow?$AA@ 0000000180011238     LIBCMT:crtmboxw.obj
 0002:00005248       ??_C@_0BD@HHGDFDBJ@GetLastActivePopup?$AA@ 0000000180011248     LIBCMT:crtmboxw.obj
 0002:00005260       ??_C@_0BK@DEKFELLI@GetUserObjectInformationW?$AA@ 0000000180011260     LIBCMT:crtmboxw.obj
 0002:00005280       ??_C@_0BI@DFKBFLJE@GetProcessWindowStation?$AA@ 0000000180011280     LIBCMT:crtmboxw.obj
 0002:00005298       _FPinit                    0000000180011298     LIBCMT:fpinit.obj
 0002:000052a0       ??_C@_05KLBDPFGC@e?$CL000?$AA@ 00000001800112a0     LIBCMT:cvt.obj
 0002:000052a8       __real@0000000000000000    00000001800112a8     LIBCMT:cvt.obj
 0002:000052b0       ??_C@_1BA@BALFACEM@?$AAC?$AAO?$AAN?$AAO?$AAU?$AAT?$AA$?$AA?$AA@ 00000001800112b0     LIBCMT:initcon.obj
 0002:000052c0       ??_C@_06PGGFOGJG@1?$CDSNAN?$AA@ 00000001800112c0     LIBCMT:x10fout.obj
 0002:000052c8       ??_C@_05PHHOCPM@1?$CDIND?$AA@ 00000001800112c8     LIBCMT:x10fout.obj
 0002:000052d0       ??_C@_05DNEBIAHO@1?$CDINF?$AA@ 00000001800112d0     LIBCMT:x10fout.obj
 0002:000052d8       ??_C@_06IMKFLFPG@1?$CDQNAN?$AA@ 00000001800112d8     LIBCMT:x10fout.obj
 0002:000052e0       _load_config_used          00000001800112e0     LIBCMT:loadcfg.obj
 0002:000053f0       __rtc_iaa                  00000001800113f0     LIBCMT:initsect.obj
 0002:000053f8       __rtc_izz                  00000001800113f8     LIBCMT:initsect.obj
 0002:00005400       __rtc_taa                  0000000180011400     LIBCMT:initsect.obj
 0002:00005408       __rtc_tzz                  0000000180011408     LIBCMT:initsect.obj
 0002:00005c40       __IMPORT_DESCRIPTOR_KERNEL32 0000000180011c40     kernel32:KERNEL32.dll
 0002:00005c54       __NULL_IMPORT_DESCRIPTOR   0000000180011c54     kernel32:KERNEL32.dll
 0003:00000000       __security_cookie          0000000180013000     LIBCMT:gs_cookie.obj
 0003:00000008       __security_cookie_complement 0000000180013008     LIBCMT:gs_cookie.obj
 0003:00000010       _mbctype                   0000000180013010     LIBCMT:mbctype.obj
 0003:00000120       _mbcasemap                 0000000180013120     LIBCMT:mbctype.obj
 0003:00000220       __initialmbcinfo           0000000180013220     LIBCMT:mbctype.obj
 0003:00000540       __ptmbcinfo                0000000180013540     LIBCMT:mbctype.obj
 0003:00000548       __flsindex                 0000000180013548     LIBCMT:tidtable.obj
 0003:000006c0       __mb_cur_max               00000001800136c0     LIBCMT:nlsdata.obj
 0003:000006c4       __wclocalestr              00000001800136c4     LIBCMT:nlsdata.obj
 0003:000006d0       __lc_time_c                00000001800136d0     LIBCMT:nlsdata.obj
 0003:00000990       __ptlocinfo                0000000180013990     LIBCMT:nlsdata.obj
 0003:000009a0       __initiallocinfo           00000001800139a0     LIBCMT:nlsdata.obj
 0003:00000af8       __globallocalestatus       0000000180013af8     LIBCMT:glstatus.obj
 0003:00000b10       __badioinfo                0000000180013b10     LIBCMT:ioinit.obj
 0003:00000db0       __lconv_c                  0000000180013db0     LIBCMT:lconv.obj
 0003:00000e48       __lconv_static_decimal     0000000180013e48     LIBCMT:lconv.obj
 0003:00000e4c       __lconv_static_W_decimal   0000000180013e4c     LIBCMT:lconv.obj
 0003:00000e50       __lconv                    0000000180013e50     LIBCMT:lconv.obj
 0003:00000e58       _pctype                    0000000180013e58     LIBCMT:ctype.obj
 0003:00000e60       _pwctype                   0000000180013e60     LIBCMT:ctype.obj
 0003:00000e70       _cfltcvt_tab               0000000180013e70     LIBCMT:cmiscdat.obj
 0003:00000ec0       _iob                       0000000180013ec0     LIBCMT:_file.obj
 0003:00001280       __isa_available            0000000180014280     LIBCMT:cpu_disp.obj
 0003:00001284       __isa_enabled              0000000180014284     LIBCMT:cpu_disp.obj
 0003:00001290       __abort_behavior           0000000180014290     LIBCMT:abort.obj
 0003:00001294       _fltused                   0000000180014294     LIBCMT:fpinit.obj
 0003:00001298       _ldused                    0000000180014298     LIBCMT:fpinit.obj
 0003:000012a0       _HUGE                      00000001800142a0     LIBCMT:huge.obj
 0003:000012d8       _confh                     00000001800142d8     LIBCMT:initcon.obj
 0003:000012e0       _pow10pos                  00000001800142e0     LIBCMT:constpow.obj
 0003:00001440       _pow10neg                  0000000180014440     LIBCMT:constpow.obj
 0003:000015a8       _aenvptr                   00000001800145a8     LIBCMT:dllcrt0.obj
 0003:000015b0       _wenvptr                   00000001800145b0     LIBCMT:dllcrt0.obj
 0003:00001b38       __pInvalidArgHandler       0000000180014b38     LIBCMT:invarg.obj
 0003:00001b40       __mbcodepage               0000000180014b40     LIBCMT:mbctype.obj
 0003:00001b44       __ismbcodepage             0000000180014b44     LIBCMT:mbctype.obj
 0003:00001b48       __mbulinfo                 0000000180014b48     LIBCMT:mbctype.obj
 0003:00001b58       __mblocalename             0000000180014b58     LIBCMT:mbctype.obj
 0003:00001b64       __locale_changed           0000000180014b64     LIBCMT:wsetloca.obj
 0003:00001b68       _C_Exit_Done               0000000180014b68     LIBCMT:crt0dat.obj
 0003:00001b6c       __argc                     0000000180014b6c     LIBCMT:crt0dat.obj
 0003:00001b70       __argv                     0000000180014b70     LIBCMT:crt0dat.obj
 0003:00001b78       __wargv                    0000000180014b78     LIBCMT:crt0dat.obj
 0003:00001b80       _environ                   0000000180014b80     LIBCMT:crt0dat.obj
 0003:00001b88       _wenviron                  0000000180014b88     LIBCMT:crt0dat.obj
 0003:00001b90       _pgmptr                    0000000180014b90     LIBCMT:crt0dat.obj
 0003:00001b98       _wpgmptr                   0000000180014b98     LIBCMT:crt0dat.obj
 0003:00001ba0       _umaskval                  0000000180014ba0     LIBCMT:crt0dat.obj
 0003:00001ba4       _exitflag                  0000000180014ba4     LIBCMT:crt0dat.obj
 0003:00001ba8       _C_Termination_Done        0000000180014ba8     LIBCMT:crt0dat.obj
 0003:00001bb0       __winitenv                 0000000180014bb0     LIBCMT:crt0dat.obj
 0003:00001bb8       __initenv                  0000000180014bb8     LIBCMT:crt0dat.obj
 0003:00001bc0       _crtheap                   0000000180014bc0     LIBCMT:heapinit.obj
 0003:00001bd0       __pioinfo                  0000000180014bd0     LIBCMT:ioinit.obj
 0003:00001ed8       _maxwait                   0000000180014ed8     LIBCMT:crtheap.obj
 0003:00002110       __lconv_static_null        0000000180015110     LIBCMT:lconv.obj
 0003:00002114       __lconv_static_W_null      0000000180015114     LIBCMT:lconv.obj
 0003:00002120       __app_type                 0000000180015120     LIBCMT:crt0msg.obj
 0003:00002758       ?__pInconsistency@@3P6AXXZEA 0000000180015758     LIBCMT:hooks.obj
 0003:00002760       ?_pnhHeap@@3P6AH_K@ZEA     0000000180015760     LIBCMT:handler.obj
 0003:00002768       __pPurecall                0000000180015768     LIBCMT:inithelp.obj
 0003:000027a0       _stdbuf                    00000001800157a0     LIBCMT:_sftbuf.obj
 0003:000027b0       _cflush                    00000001800157b0     LIBCMT:_file.obj
 0003:000027b4       __favor                    00000001800157b4     LIBCMT:cpu_disp.obj
 0003:000027b8       __error_mode               00000001800157b8     LIBCMT:errmode.obj
 0003:000027e8       _newmode                   00000001800157e8     LIBCMT:_newmode.obj
 0003:000027ec       __fastflag                 00000001800157ec     LIBCMT:fpinit.obj
 0003:000027f0       _outputformat              00000001800157f0     LIBCMT:outputformat.obj
 0003:000027f8       __piob                     00000001800157f8     <common>
 0003:00002800       _nstream                   0000000180015800     <common>
 0003:00002820       _bufin                     0000000180015820     <common>
 0003:00003820       _debugger_hook_dummy       0000000180016820     <common>
 0003:00003828       _pDestructExceptionObject  0000000180016828     <common>
 0003:00003840       encodedKERNEL32Functions   0000000180016840     <common>
 0003:00003948       _nhandle                   0000000180016948     <common>
 0003:00003950       __dyn_tls_init_callback    0000000180016950     <common>
 0003:00003958       __onexitend                0000000180016958     <common>
 0003:00003960       __onexitbegin              0000000180016960     <common>
 0003:00003968       __mbctype_initialized      0000000180016968     <common>
 0003:0000396c       __env_initialized          000000018001696c     <common>
 0003:00003970       _acmdln                    0000000180016970     <common>

 entry point at        0001:00000238

 Static symbols

 0000:fffe6000       .debug$S                   0000000180000000     kernel32:KERNEL32.dll
 0000:fffe6000       .debug$S                   0000000180000000     kernel32:KERNEL32.dll
 0000:fffe6000       .debug$S                   0000000180000000     kernel32:KERNEL32.dll
 0000:fffe6000       .debug$S                   0000000180000000     kernel32:KERNEL32.dll
 0000:fffe6000       .debug$S                   0000000180000000     kernel32:KERNEL32.dll
 0000:fffe6000       .debug$S                   0000000180000000     kernel32:KERNEL32.dll
 0000:fffe6000       .debug$S                   0000000180000000     kernel32:KERNEL32.dll
 0000:fffe6000       .debug$S                   0000000180000000     kernel32:KERNEL32.dll
 0000:fffe6000       .debug$S                   0000000180000000     kernel32:KERNEL32.dll
 0000:fffe6000       .debug$S                   0000000180000000     kernel32:KERNEL32.dll
 0000:fffe6000       .debug$S                   0000000180000000     kernel32:KERNEL32.dll
 0000:fffe6000       .debug$S                   0000000180000000     kernel32:KERNEL32.dll
 0000:fffe6000       .debug$S                   0000000180000000     kernel32:KERNEL32.dll
 0000:fffe6000       .debug$S                   0000000180000000     kernel32:KERNEL32.dll
 0000:fffe6000       .debug$S                   0000000180000000     kernel32:KERNEL32.dll
 0000:fffe6000       .debug$S                   0000000180000000     kernel32:KERNEL32.dll
 0000:fffe6000       .debug$S                   0000000180000000     kernel32:KERNEL32.dll
 0000:fffe6000       .debug$S                   0000000180000000     kernel32:KERNEL32.dll
 0000:fffe6000       .debug$S                   0000000180000000     kernel32:KERNEL32.dll
 0000:fffe6000       .debug$S                   0000000180000000     kernel32:KERNEL32.dll
 0000:fffe6000       .debug$S                   0000000180000000     kernel32:KERNEL32.dll
 0000:fffe6000       .debug$S                   0000000180000000     kernel32:KERNEL32.dll
 0000:fffe6000       .debug$S                   0000000180000000     kernel32:KERNEL32.dll
 0000:fffe6000       .debug$S                   0000000180000000     kernel32:KERNEL32.dll
 0000:fffe6000       .debug$S                   0000000180000000     kernel32:KERNEL32.dll
 0000:fffe6000       .debug$S                   0000000180000000     kernel32:KERNEL32.dll
 0000:fffe6000       .debug$S                   0000000180000000     kernel32:KERNEL32.dll
 0000:fffe6000       .debug$S                   0000000180000000     kernel32:KERNEL32.dll
 0000:fffe6000       .debug$S                   0000000180000000     kernel32:KERNEL32.dll
 0000:fffe6000       .debug$S                   0000000180000000     kernel32:KERNEL32.dll
 0000:fffe6000       .debug$S                   0000000180000000     kernel32:KERNEL32.dll
 0000:fffe6000       .debug$S                   0000000180000000     kernel32:KERNEL32.dll
 0000:fffe6000       .debug$S                   0000000180000000     kernel32:KERNEL32.dll
 0000:fffe6000       .debug$S                   0000000180000000     kernel32:KERNEL32.dll
 0000:fffe6000       .debug$S                   0000000180000000     kernel32:KERNEL32.dll
 0000:fffe6000       .debug$S                   0000000180000000     kernel32:KERNEL32.dll
 0000:fffe6000       .debug$S                   0000000180000000     kernel32:KERNEL32.dll
 0000:fffe6000       .debug$S                   0000000180000000     kernel32:KERNEL32.dll
 0000:fffe6000       .debug$S                   0000000180000000     kernel32:KERNEL32.dll
 0000:fffe6000       .debug$S                   0000000180000000     kernel32:KERNEL32.dll
 0000:fffe6000       .debug$S                   0000000180000000     kernel32:KERNEL32.dll
 0000:fffe6000       .debug$S                   0000000180000000     kernel32:KERNEL32.dll
 0000:fffe6000       .debug$S                   0000000180000000     kernel32:KERNEL32.dll
 0000:fffe6000       .debug$S                   0000000180000000     kernel32:KERNEL32.dll
 0000:fffe6000       .debug$S                   0000000180000000     kernel32:KERNEL32.dll
 0000:fffe6000       .debug$S                   0000000180000000     kernel32:KERNEL32.dll
 0000:fffe6000       .debug$S                   0000000180000000     kernel32:KERNEL32.dll
 0000:fffe6000       .debug$S                   0000000180000000     kernel32:KERNEL32.dll
 0000:fffe6000       .debug$S                   0000000180000000     kernel32:KERNEL32.dll
 0000:fffe6000       .debug$S                   0000000180000000     kernel32:KERNEL32.dll
 0000:fffe6000       .debug$S                   0000000180000000     kernel32:KERNEL32.dll
 0000:fffe6000       .debug$S                   0000000180000000     kernel32:KERNEL32.dll
 0000:fffe6000       .debug$S                   0000000180000000     kernel32:KERNEL32.dll
 0000:fffe6000       .debug$S                   0000000180000000     kernel32:KERNEL32.dll
 0000:fffe6000       .debug$S                   0000000180000000     kernel32:KERNEL32.dll
 0000:fffe6000       .debug$S                   0000000180000000     kernel32:KERNEL32.dll
 0000:fffe6000       .debug$S                   0000000180000000     kernel32:KERNEL32.dll
 0000:fffe6000       .debug$S                   0000000180000000     kernel32:KERNEL32.dll
 0000:fffe6000       .debug$S                   0000000180000000     kernel32:KERNEL32.dll
 0000:fffe6000       .debug$S                   0000000180000000     kernel32:KERNEL32.dll
 0000:fffe6000       .debug$S                   0000000180000000     kernel32:KERNEL32.dll
 0000:fffe6000       .debug$S                   0000000180000000     kernel32:KERNEL32.dll
 0000:fffe6000       .debug$S                   0000000180000000     kernel32:KERNEL32.dll
 0000:fffe6000       .debug$S                   0000000180000000     kernel32:KERNEL32.dll
 0000:fffe6000       .debug$S                   0000000180000000     kernel32:KERNEL32.dll
 0000:fffe6000       .debug$S                   0000000180000000     kernel32:KERNEL32.dll
 0000:fffe6000       .debug$S                   0000000180000000     kernel32:KERNEL32.dll
 0000:fffe6000       .debug$S                   0000000180000000     kernel32:KERNEL32.dll
 0000:fffe6000       .debug$S                   0000000180000000     kernel32:KERNEL32.dll
 0000:fffe6000       .debug$S                   0000000180000000     kernel32:KERNEL32.dll
 0000:fffe6000       .debug$S                   0000000180000000     kernel32:KERNEL32.dll
 0000:fffe6000       .debug$S                   0000000180000000     kernel32:KERNEL32.dll
 0000:fffe6000       .debug$S                   0000000180000000     kernel32:KERNEL32.dll
 0000:fffe6000       .debug$S                   0000000180000000     kernel32:KERNEL32.dll
 0000:fffe6000       .debug$S                   0000000180000000     kernel32:KERNEL32.dll
 0000:fffe6000       .debug$S                   0000000180000000     kernel32:KERNEL32.dll
 0000:fffe6000       .debug$S                   0000000180000000     kernel32:KERNEL32.dll
 0000:fffe6000       .debug$S                   0000000180000000     kernel32:KERNEL32.dll
 0000:fffe6000       .debug$S                   0000000180000000     kernel32:KERNEL32.dll
 0001:00000000       $$000000                   0000000180001000     LIBCMT:amdsecgs.obj
 0001:00000278       __DllMainCRTStartup        0000000180001278 f   LIBCMT:dllcrt0.obj
 0001:00000a44       ?getSystemCP@@YAHH@Z       0000000180001a44 f   LIBCMT:mbctype.obj
 0001:00000ac4       ?setSBCS@@YAXPEAUthreadmbcinfostruct@@@Z 0000000180001ac4 f   LIBCMT:mbctype.obj
 0001:00000b54       ?setSBUpLow@@YAXPEAUthreadmbcinfostruct@@@Z 0000000180001b54 f   LIBCMT:mbctype.obj
 0001:00001db0       _initterm                  0000000180002db0 f   LIBCMT:crt0dat.obj
 0001:00001e64       doexit                     0000000180002e64 f   LIBCMT:crt0dat.obj
 0001:000024c0       parse_cmdline              00000001800034c0 f   LIBCMT:stdargv.obj
 0001:00003420       $$000000                   0000000180004420     LIBCMT:memset.obj
 0001:000035c5       MsetTab                    00000001800045c5     LIBCMT:memset.obj
 0001:00003dd8       ?__crtLCMapStringA_stat@@YAHPEAUlocaleinfo_struct@@PEB_WKPEBDHPEADHHH@Z 0000000180004dd8 f   LIBCMT:a_map.obj
 0001:0000415c       ?__crtGetStringTypeA_stat@@YAHPEAUlocaleinfo_struct@@KPEBDHPEAGHH@Z 000000018000515c f   LIBCMT:a_str.obj
 0001:000044c0       $$000000                   00000001800054c0     LIBCMT:memcmp.obj
 0001:000045a0       $$000000                   00000001800055a0     LIBCMT:memcpy.obj
 0001:00004690       MoveSmall                  0000000180005690     LIBCMT:memcpy.obj
 0001:000056f0       $$000000                   00000001800066f0     LIBCMT:jmpuwind.obj
 0001:00005938       ?x_ismbbtype_l@@YAHPEAUlocaleinfo_struct@@IHH@Z 0000000180006938 f   LIBCMT:ismbbyte.obj
 0001:00005a30       $$000000                   0000000180006a30     LIBCMT:strlen.obj
 0001:00005ec0       $$000000                   0000000180006ec0     LIBCMT:chkstk.obj
 0001:000063d0       flsall                     00000001800073d0 f   LIBCMT:fflush.obj
 0001:00009038       _cftoe2_l                  000000018000a038 f   LIBCMT:cvt.obj
 0001:0000932c       _cftof2_l                  000000018000a32c f   LIBCMT:cvt.obj
 0001:0000a9a0       _CRT_INIT$fin$0            000000018000b9a0 f   LIBCMT:dllcrt0.obj
 0001:0000a9c6       __DllMainCRTStartup$filt$0 000000018000b9c6 f   LIBCMT:dllcrt0.obj
 0001:0000aa0f       _setmbcp$fin$0             000000018000ba0f f   LIBCMT:mbctype.obj
 0001:0000aa0f       __updatetmbcinfo$fin$0     000000018000ba0f f   LIBCMT:mbctype.obj
 0001:0000aa28       _initptd$fin$1             000000018000ba28 f   LIBCMT:tidtable.obj
 0001:0000aa28       _freefls$fin$1             000000018000ba28 f   LIBCMT:tidtable.obj
 0001:0000aa41       _freefls$fin$0             000000018000ba41 f   LIBCMT:tidtable.obj
 0001:0000aa41       _initptd$fin$0             000000018000ba41 f   LIBCMT:tidtable.obj
 0001:0000aa5a       __updatetlocinfo$fin$0     000000018000ba5a f   LIBCMT:wsetloca.obj
 0001:0000aa5a       _locterm$fin$0             000000018000ba5a f   LIBCMT:wsetloca.obj
 0001:0000aa73       doexit$fin$0               000000018000ba73 f   LIBCMT:crt0dat.obj
 0001:0000aa97       _ioinit$fin$0              000000018000ba97 f   LIBCMT:ioinit.obj
 0001:0000aab2       _mtinitlocknum$fin$0       000000018000bab2 f   LIBCMT:mlock.obj
 0001:0000aad0       _IsNonwritableInCurrentImage$filt$0 000000018000bad0 f   LIBCMT:pesect.obj
 0001:0000aaf0       _onexit$fin$0              000000018000baf0 f   LIBCMT:onexit.obj
 0001:0000ab04       raise$fin$0                000000018000bb04 f   LIBCMT:winsig.obj
 0001:0000ab22       flsall$fin$0               000000018000bb22 f   LIBCMT:fflush.obj
 0001:0000ab4a       flsall$fin$1               000000018000bb4a f   LIBCMT:fflush.obj
 0001:0000ab63       _fcloseall$fin$0           000000018000bb63 f   LIBCMT:closeall.obj
 0001:0000ab7c       _write$fin$0               000000018000bb7c f   LIBCMT:write.obj
 0001:0000ab93       fclose$fin$0               000000018000bb93 f   LIBCMT:fclose.obj
 0001:0000abab       __lock_fhandle$fin$0       000000018000bbab f   LIBCMT:osfinfo.obj
 0001:0000abc4       _commit$fin$0              000000018000bbc4 f   LIBCMT:close.obj
 0001:0000abc4       _close$fin$0               000000018000bbc4 f   LIBCMT:close.obj
 0002:00000218       pinit                      000000018000c218     LIBCMT:mbctype.obj
 0002:00000220       pinit                      000000018000c220     LIBCMT:onexit.obj
 0002:00000228       pinit                      000000018000c228     LIBCMT:_file.obj
 0002:00000230       pinit                      000000018000c230     LIBCMT:cpu_disp.obj
 0002:00000248       pterm                      000000018000c248     LIBCMT:wsetloca.obj
 0002:00000250       pterm                      000000018000c250     LIBCMT:initcon.obj
 0002:00000258       pterm                      000000018000c258     LIBCMT:_file.obj
 0002:000002c0       GS_ExceptionPointers       000000018000c2c0     LIBCMT:gs_report.obj
 0002:000002d0       _mb_locale_names           000000018000c2d0     LIBCMT:mbctype.obj
 0002:000006f0       _first_127char             000000018000c6f0     LIBCMT:wsetloca.obj
 0002:000046a0       rterrs                     00000001800106a0     LIBCMT:crt0msg.obj
 0002:00005410       $xdatasym                  0000000180011410     LIBCMT:amdsecgs.obj
 0002:00005414       $unwind$_CRT_INIT          0000000180011414     LIBCMT:dllcrt0.obj
 0002:00005434       $unwind$__DllMainCRTStartup 0000000180011434     LIBCMT:dllcrt0.obj
 0002:0000545c       $unwind$__report_gsfailure 000000018001145c     LIBCMT:gs_report.obj
 0002:0000545c       $unwind$_putwch_nolock     000000018001145c     LIBCMT:gs_report.obj
 0002:00005464       $unwind$_cfltcvt_l         0000000180011464     LIBCMT:invarg.obj
 0002:00005464       $unwind$_invalid_parameter_noinfo 0000000180011464     LIBCMT:invarg.obj
 0002:0000546c       $unwind$_call_reportfault  000000018001146c     LIBCMT:invarg.obj
 0002:0000548c       $unwind$_invalid_parameter 000000018001148c     LIBCMT:invarg.obj
 0002:0000548c       $unwind$_setenvp           000000018001148c     LIBCMT:invarg.obj
 0002:000054a0       $unwind$__updatetlocinfo   00000001800114a0     LIBCMT:localref.obj
 0002:000054c0       $unwind$_mtdeletelocks     00000001800114c0     LIBCMT:localref.obj
 0002:000054c0       $unwind$_initterm          00000001800114c0     LIBCMT:localref.obj
 0002:000054c0       $unwind$?setSBCS@@YAXPEAUthreadmbcinfostruct@@@Z 00000001800114c0     LIBCMT:localref.obj
 0002:000054c0       $unwind$_XcptFilter        00000001800114c0     LIBCMT:localref.obj
 0002:000054c0       $unwind$__freetlocinfo     00000001800114c0     LIBCMT:localref.obj
 0002:000054d4       $unwind$__updatetmbcinfo   00000001800114d4     LIBCMT:mbctype.obj
 0002:000054f8       $unwind$_setmbcp           00000001800114f8     LIBCMT:mbctype.obj
 0002:00005528       $unwind$_setmbcp_nolock    0000000180011528     LIBCMT:mbctype.obj
 0002:00005548       $unwind$?setSBUpLow@@YAXPEAUthreadmbcinfostruct@@@Z 0000000180011548     LIBCMT:mbctype.obj
 0002:00005564       $unwind$_tolower_l         0000000180011564     LIBCMT:tolower.obj
 0002:00005574       $unwind$_freefls           0000000180011574     LIBCMT:tidtable.obj
 0002:000055a8       $unwind$_initptd           00000001800115a8     LIBCMT:tidtable.obj
 0002:000055dc       $unwind$_locterm           00000001800115dc     LIBCMT:wsetloca.obj
 0002:000055fc       $unwind$doexit             00000001800115fc     LIBCMT:crt0dat.obj
 0002:0000562c       $unwind$_ioinit            000000018001162c     LIBCMT:ioinit.obj
 0002:00005674       $unwind$_setargv           0000000180011674     LIBCMT:stdargv.obj
 0002:00005684       $unwind$parse_cmdline      0000000180011684     LIBCMT:stdargv.obj
 0002:000056a0       $unwind$free               00000001800116a0     LIBCMT:free.obj
 0002:000056a0       $unwind$__free_lconv_num   00000001800116a0     LIBCMT:free.obj
 0002:000056a8       $unwind$__security_init_cookie 00000001800116a8     LIBCMT:gs_support.obj
 0002:000056b4       $unwind$__crtCaptureCurrentContext 00000001800116b4     LIBCMT:winapisupp.obj
 0002:000056c0       $unwind$__crtCapturePreviousContext 00000001800116c0     LIBCMT:winapisupp.obj
 0002:000056cc       $unwind$_realloc_crt       00000001800116cc     LIBCMT:crtheap.obj
 0002:000056cc       $unwind$_calloc_crt        00000001800116cc     LIBCMT:crtheap.obj
 0002:000056cc       $unwind$_malloc_crt        00000001800116cc     LIBCMT:crtheap.obj
 0002:000056cc       $unwind$GetTableIndexFromLocaleName 00000001800116cc     LIBCMT:crtheap.obj
 0002:000056e4       $unwind$_getptd_noexit     00000001800116e4     LIBCMT:initsect.obj
 0002:000056e4       $unwind$_fclose_nolock     00000001800116e4     LIBCMT:initsect.obj
 0002:000056e4       $unwind$_RTC_Terminate     00000001800116e4     LIBCMT:initsect.obj
 0002:000056e4       $unwind$_dosmaperr         00000001800116e4     LIBCMT:initsect.obj
 0002:000056e4       $unwind$_close_nolock      00000001800116e4     LIBCMT:initsect.obj
 0002:000056e4       $unwind$_initterm_e        00000001800116e4     LIBCMT:initsect.obj
 0002:000056e4       $unwind$__freeCrtMemory    00000001800116e4     LIBCMT:initsect.obj
 0002:000056e4       $unwind$_updatetlocinfoEx_nolock 00000001800116e4     LIBCMT:initsect.obj
 0002:000056e4       $unwind$_RTC_Initialize    00000001800116e4     LIBCMT:initsect.obj
 0002:000056e4       $unwind$__initstdio        00000001800116e4     LIBCMT:initsect.obj
 0002:000056e4       $unwind$_lock              00000001800116e4     LIBCMT:initsect.obj
 0002:000056e4       $unwind$_initp_misc_cfltcvt_tab 00000001800116e4     LIBCMT:initsect.obj
 0002:000056e4       $unwind$_calloc_impl       00000001800116e4     LIBCMT:initsect.obj
 0002:000056e4       $unwind$_fptostr           00000001800116e4     LIBCMT:initsect.obj
 0002:000056f0       $unwind$__C_specific_handler 00000001800116f0     LIBCMT:chandler.obj
 0002:00005710       $xdatasym                  0000000180011710     LIBCMT:memset.obj
 0002:00005714       $unwind$_mtinitlocknum     0000000180011714     LIBCMT:mlock.obj
 0002:0000573c       $unwind$_ioterm            000000018001173c     LIBCMT:mlock.obj
 0002:0000573c       $unwind$_DllMainCRTStartup 000000018001173c     LIBCMT:mlock.obj
 0002:0000573c       $unwind$_mtinitlocks       000000018001173c     LIBCMT:mlock.obj
 0002:0000573c       $unwind$malloc             000000018001173c     LIBCMT:mlock.obj
 0002:0000573c       $unwind$_flush             000000018001173c     LIBCMT:mlock.obj
 0002:0000573c       $unwind$_lseeki64_nolock   000000018001173c     LIBCMT:mlock.obj
 0002:0000573c       $unwind$realloc            000000018001173c     LIBCMT:mlock.obj
 0002:0000574c       $unwind$__free_lc_time     000000018001174c     LIBCMT:inittime.obj
 0002:0000574c       $unwind$__free_lconv_mon   000000018001174c     LIBCMT:inittime.obj
 0002:00005754       $unwind$__crtLCMapStringA  0000000180011754     LIBCMT:a_map.obj
 0002:00005764       $unwind$?__crtLCMapStringA_stat@@YAHPEAUlocaleinfo_struct@@PEB_WKPEBDHPEADHHH@Z 0000000180011764     LIBCMT:a_map.obj
 0002:0000578c       $unwind$__crtGetStringTypeA 000000018001178c     LIBCMT:a_str.obj
 0002:0000579c       $unwind$?__crtGetStringTypeA_stat@@YAHPEAUlocaleinfo_struct@@KPEBDHPEAGHH@Z 000000018001179c     LIBCMT:a_str.obj
 0002:000057c4       $unwind$_isctype_l         00000001800117c4     LIBCMT:isctype.obj
 0002:000057d4       $unwind$_cropzeros_l       00000001800117d4     LIBCMT:_wctype.obj
 0002:000057d4       $unwind$?getSystemCP@@YAHH@Z 00000001800117d4     LIBCMT:_wctype.obj
 0002:000057d4       $unwind$_isleadbyte_l      00000001800117d4     LIBCMT:_wctype.obj
 0002:000057d4       $unwind$isdigit            00000001800117d4     LIBCMT:_wctype.obj
 0002:000057d4       $unwind$isleadbyte         00000001800117d4     LIBCMT:_wctype.obj
 0002:000057d4       $unwind$_forcdecpt_l       00000001800117d4     LIBCMT:_wctype.obj
 0002:000057e0       $xdatasym                  00000001800117e0     LIBCMT:memcmp.obj
 0002:000057e8       $xdatasym                  00000001800117e8     LIBCMT:memcpy.obj
 0002:000057ec       $unwind$wcscat_s           00000001800117ec     LIBCMT:wcsncpy_s.obj
 0002:000057ec       $unwind$_init_pointers     00000001800117ec     LIBCMT:wcsncpy_s.obj
 0002:000057ec       $unwind$strcpy_s           00000001800117ec     LIBCMT:wcsncpy_s.obj
 0002:000057ec       $unwind$_lock_file         00000001800117ec     LIBCMT:wcsncpy_s.obj
 0002:000057ec       $unwind$_amsg_exit         00000001800117ec     LIBCMT:wcsncpy_s.obj
 0002:000057ec       $unwind$_callnewh          00000001800117ec     LIBCMT:wcsncpy_s.obj
 0002:000057ec       $unwind$__crtExitProcess   00000001800117ec     LIBCMT:wcsncpy_s.obj
 0002:000057ec       $unwind$__raise_securityfailure 00000001800117ec     LIBCMT:wcsncpy_s.obj
 0002:000057ec       $unwind$wcscpy_s           00000001800117ec     LIBCMT:wcsncpy_s.obj
 0002:000057ec       $unwind$__onexitinit       00000001800117ec     LIBCMT:wcsncpy_s.obj
 0002:000057ec       $unwind$_freebuf           00000001800117ec     LIBCMT:wcsncpy_s.obj
 0002:000057ec       $unwind$??0_LocaleUpdate@@QEAA@PEAUlocaleinfo_struct@@@Z 00000001800117ec     LIBCMT:wcsncpy_s.obj
 0002:000057ec       $unwind$_cinit             00000001800117ec     LIBCMT:wcsncpy_s.obj
 0002:000057ec       $unwind$_mtinit            00000001800117ec     LIBCMT:wcsncpy_s.obj
 0002:000057ec       $unwind$__GSHandlerCheckCommon 00000001800117ec     LIBCMT:wcsncpy_s.obj
 0002:000057ec       $unwind$__crtCorExitProcess 00000001800117ec     LIBCMT:wcsncpy_s.obj
 0002:000057ec       $unwind$__crtIsPackagedApp 00000001800117ec     LIBCMT:wcsncpy_s.obj
 0002:000057ec       $unwind$_lock_file2        00000001800117ec     LIBCMT:wcsncpy_s.obj
 0002:000057ec       $unwind$__crtUnhandledException 00000001800117ec     LIBCMT:wcsncpy_s.obj
 0002:000057ec       $unwind$_fflush_nolock     00000001800117ec     LIBCMT:wcsncpy_s.obj
 0002:000057ec       $unwind$__crtTerminateProcess 00000001800117ec     LIBCMT:wcsncpy_s.obj
 0002:000057ec       $unwind$_getptd            00000001800117ec     LIBCMT:wcsncpy_s.obj
 0002:000057ec       $unwind$_freeptd           00000001800117ec     LIBCMT:wcsncpy_s.obj
 0002:000057ec       $unwind$wcsncpy_s          00000001800117ec     LIBCMT:wcsncpy_s.obj
 0002:000057ec       $unwind$__crtLoadWinApiPointers 00000001800117ec     LIBCMT:wcsncpy_s.obj
 0002:000057f4       $unwind$__crtLCMapStringEx 00000001800117f4     LIBCMT:winapinls.obj
 0002:00005804       $unwind$_NMSG_WRITE        0000000180011804     LIBCMT:crt0msg.obj
 0002:00005828       $unwind$_IsNonwritableInCurrentImage 0000000180011828     LIBCMT:pesect.obj
 0002:0000584c       $unwind$_onexit            000000018001184c     LIBCMT:onexit.obj
 0002:0000587c       $unwind$?terminate@@YAXXZ  000000018001187c     LIBCMT:hooks.obj
 0002:0000589c       $unwind$raise              000000018001189c     LIBCMT:winsig.obj
 0002:000058cc       $unwind$__updatetlocinfo$fin$0 00000001800118cc     LIBCMT:winsig.obj
 0002:000058cc       $unwind$fclose$fin$0       00000001800118cc     LIBCMT:winsig.obj
 0002:000058cc       $unwind$_initptd$fin$1     00000001800118cc     LIBCMT:winsig.obj
 0002:000058cc       $unwind$_mtinitlocknum$fin$0 00000001800118cc     LIBCMT:winsig.obj
 0002:000058cc       $unwind$_freefls$fin$0     00000001800118cc     LIBCMT:winsig.obj
 0002:000058cc       $unwind$_write$fin$0       00000001800118cc     LIBCMT:winsig.obj
 0002:000058cc       $unwind$__DllMainCRTStartup$filt$0 00000001800118cc     LIBCMT:winsig.obj
 0002:000058cc       $unwind$_locterm$fin$0     00000001800118cc     LIBCMT:winsig.obj
 0002:000058cc       $unwind$_onexit$fin$0      00000001800118cc     LIBCMT:winsig.obj
 0002:000058cc       $unwind$_freefls$fin$1     00000001800118cc     LIBCMT:winsig.obj
 0002:000058cc       $unwind$_fcloseall$fin$0   00000001800118cc     LIBCMT:winsig.obj
 0002:000058cc       $unwind$__lock_fhandle$fin$0 00000001800118cc     LIBCMT:winsig.obj
 0002:000058cc       $unwind$flsall$fin$0       00000001800118cc     LIBCMT:winsig.obj
 0002:000058cc       $unwind$flsall$fin$1       00000001800118cc     LIBCMT:winsig.obj
 0002:000058cc       $unwind$_close$fin$0       00000001800118cc     LIBCMT:winsig.obj
 0002:000058cc       $unwind$__updatetmbcinfo$fin$0 00000001800118cc     LIBCMT:winsig.obj
 0002:000058cc       $unwind$_setmbcp$fin$0     00000001800118cc     LIBCMT:winsig.obj
 0002:000058cc       $unwind$_ioinit$fin$0      00000001800118cc     LIBCMT:winsig.obj
 0002:000058cc       $unwind$_CRT_INIT$fin$0    00000001800118cc     LIBCMT:winsig.obj
 0002:000058cc       $unwind$_commit$fin$0      00000001800118cc     LIBCMT:winsig.obj
 0002:000058cc       $unwind$raise$fin$0        00000001800118cc     LIBCMT:winsig.obj
 0002:000058cc       $unwind$_initptd$fin$0     00000001800118cc     LIBCMT:winsig.obj
 0002:000058cc       $unwind$_IsNonwritableInCurrentImage$filt$0 00000001800118cc     LIBCMT:winsig.obj
 0002:000058cc       $unwind$doexit$fin$0       00000001800118cc     LIBCMT:winsig.obj
 0002:000058d8       $xdatasym                  00000001800118d8     LIBCMT:jmpuwind.obj
 0002:000058ec       $unwind$_fileno            00000001800118ec     LIBCMT:_file.obj
 0002:000058ec       $unwind$__GSHandlerCheck   00000001800118ec     LIBCMT:_file.obj
 0002:000058ec       $unwind$__crtDownlevelLocaleNameToLCID 00000001800118ec     LIBCMT:_file.obj
 0002:000058ec       $unwind$_FF_MSGBANNER      00000001800118ec     LIBCMT:_file.obj
 0002:000058ec       $unwind$__termconout       00000001800118ec     LIBCMT:_file.obj
 0002:000058ec       $unwind$_errno             00000001800118ec     LIBCMT:_file.obj
 0002:000058ec       $unwind$__endstdio         00000001800118ec     LIBCMT:_file.obj
 0002:000058ec       $unwind$_initp_eh_hooks    00000001800118ec     LIBCMT:_file.obj
 0002:000058ec       $unwind$abort              00000001800118ec     LIBCMT:_file.obj
 0002:000058ec       $unwind$__crtInitializeCriticalSectionEx 00000001800118ec     LIBCMT:_file.obj
 0002:000058ec       $unwind$_set_error_mode    00000001800118ec     LIBCMT:_file.obj
 0002:000058ec       $unwind$__initmbctable     00000001800118ec     LIBCMT:_file.obj
 0002:000058ec       $unwind$_isatty            00000001800118ec     LIBCMT:_file.obj
 0002:000058ec       $unwind$_invoke_watson     00000001800118ec     LIBCMT:_file.obj
 0002:000058ec       $unwind$_heap_init         00000001800118ec     LIBCMT:_file.obj
 0002:000058ec       $unwind$__doserrno         00000001800118ec     LIBCMT:_file.obj
 0002:000058ec       $unwind$_msize             00000001800118ec     LIBCMT:_file.obj
 0002:000058ec       $unwind$_get_osfhandle     00000001800118ec     LIBCMT:_file.obj
 0002:000058ec       $unwind$atexit             00000001800118ec     LIBCMT:_file.obj
 0002:000058ec       $unwind$_mtterm            00000001800118ec     LIBCMT:_file.obj
 0002:000058f4       $unwind$?x_ismbbtype_l@@YAHPEAUlocaleinfo_struct@@IHH@Z 00000001800118f4     LIBCMT:ismbbyte.obj
 0002:00005908       $xdatasym                  0000000180011908     LIBCMT:strlen.obj
 0002:0000590c       $unwind$__isa_available_init 000000018001190c     LIBCMT:cpu_disp.obj
 0002:00005920       $xdatasym                  0000000180011920     LIBCMT:chkstk.obj
 0002:00005928       $unwind$__crtMessageBoxW   0000000180011928     LIBCMT:crtmboxw.obj
 0002:00005944       $unwind$flsall             0000000180011944     LIBCMT:fflush.obj
 0002:00005984       $unwind$_fcloseall         0000000180011984     LIBCMT:closeall.obj
 0002:000059ac       $unwind$_commit            00000001800119ac     LIBCMT:commit.obj
 0002:000059d4       $unwind$_write             00000001800119d4     LIBCMT:write.obj
 0002:00005a00       $unwind$_write_nolock      0000000180011a00     LIBCMT:write.obj
 0002:00005a24       $unwind$fclose             0000000180011a24     LIBCMT:fclose.obj
 0002:00005a48       $unwind$_atodbl_l          0000000180011a48     LIBCMT:atodbl.obj
 0002:00005a5c       $unwind$__crt_atoflt_l     0000000180011a5c     LIBCMT:atodbl.obj
 0002:00005a70       $unwind$_free_osfhnd       0000000180011a70     LIBCMT:osfinfo.obj
 0002:00005a80       $unwind$__lock_fhandle     0000000180011a80     LIBCMT:osfinfo.obj
 0002:00005aac       $unwind$_mbtowc_l          0000000180011aac     LIBCMT:mbtowc.obj
 0002:00005ac4       $unwind$_close             0000000180011ac4     LIBCMT:close.obj
 0002:00005aec       $unwind$_ld12tod           0000000180011aec     LIBCMT:intrncvt.obj
 0002:00005aec       $unwind$_ld12tof           0000000180011aec     LIBCMT:intrncvt.obj
 0002:00005b10       $unwind$__strgtold12_l     0000000180011b10     LIBCMT:strgtold.obj
 0002:00005b34       $unwind$__initconout       0000000180011b34     LIBCMT:cvt.obj
 0002:00005b34       $unwind$_cfltcvt           0000000180011b34     LIBCMT:cvt.obj
 0002:00005b3c       $unwind$_fassign_l         0000000180011b3c     LIBCMT:cvt.obj
 0002:00005b44       $unwind$_cftoe2_l          0000000180011b44     LIBCMT:cvt.obj
 0002:00005b60       $unwind$_cftoe_l           0000000180011b60     LIBCMT:cvt.obj
 0002:00005b78       $unwind$_cftoa_l           0000000180011b78     LIBCMT:cvt.obj
 0002:00005b94       $unwind$_cftof2_l          0000000180011b94     LIBCMT:cvt.obj
 0002:00005b94       $unwind$__crtGetEnvironmentStringsA 0000000180011b94     LIBCMT:cvt.obj
 0002:00005bac       $unwind$_cftof_l           0000000180011bac     LIBCMT:cvt.obj
 0002:00005bc4       $unwind$_cftog_l           0000000180011bc4     LIBCMT:cvt.obj
 0002:00005bdc       $unwind$__mtold12          0000000180011bdc     LIBCMT:mantold.obj
 0002:00005bf4       $unwind$strrchr            0000000180011bf4     LIBCMT:strrchr.obj
 0002:00005bfc       $unwind$_fltout2           0000000180011bfc     LIBCMT:cfout.obj
 0002:00005c14       $unwind$__dtold            0000000180011c14     LIBCMT:cfout.obj
 0002:00005c1c       $unwind$$I10_OUTPUT        0000000180011c1c     LIBCMT:x10fout.obj
 0002:00005e68       .idata$6                   0000000180011e68     kernel32:KERNEL32.dll
 0003:00000448       __rgctypeflag              0000000180013448     LIBCMT:mbctype.obj
 0003:00000450       __rgcode_page_info         0000000180013450     LIBCMT:mbctype.obj
 0003:00000550       errtable                   0000000180013550     LIBCMT:dosmap.obj
 0003:000006b8       ErrnoNoMem                 00000001800136b8     LIBCMT:dosmap.obj
 0003:000006bc       DoserrorNoMem              00000001800136bc     LIBCMT:dosmap.obj
 0003:00000b00       _ctype_loc_style           0000000180013b00     LIBCMT:wsetloca.obj
 0003:00000b68       ?isPackaged@?1??__crtIsPackagedApp@@9@9 0000000180013b68     LIBCMT:winapisupp.obj
 0003:00000b70       _locktable                 0000000180013b70     LIBCMT:mlock.obj
 0003:000012a8       DoubleFormat               00000001800142a8     LIBCMT:intrncvt.obj
 0003:000012c0       FloatFormat                00000001800142c0     LIBCMT:intrncvt.obj
 0003:000015a0       __proc_attached            00000001800145a0     LIBCMT:dllcrt0.obj
 0003:000015c0       GS_ExceptionRecord         00000001800145c0     LIBCMT:gs_report.obj
 0003:00001660       GS_ContextRecord           0000000180014660     LIBCMT:gs_report.obj
 0003:00001b30       DebuggerWasPresent         0000000180014b30     LIBCMT:gs_report.obj
 0003:00001b60       fSystemSet                 0000000180014b60     LIBCMT:mbctype.obj
 0003:00001dd0       ?_pgmname@?1??_setargv@@9@9 0000000180014dd0     LIBCMT:stdargv.obj
 0003:00001ee0       lclcritsects               0000000180014ee0     LIBCMT:mlock.obj
 0003:00002118       __crtCallProc              0000000180015118     LIBCMT:winapinls.obj
 0003:00002130       ?outmsg@?8??_NMSG_WRITE@@9@9 0000000180015130     LIBCMT:crt0msg.obj
 0003:00002770       ctrlc_action               0000000180015770     LIBCMT:winsig.obj
 0003:00002778       ctrlbreak_action           0000000180015778     LIBCMT:winsig.obj
 0003:00002780       abort_action               0000000180015780     LIBCMT:winsig.obj
 0003:00002788       term_action                0000000180015788     LIBCMT:winsig.obj
 0003:00002790       ConsoleCtrlHandler_Installed 0000000180015790     LIBCMT:winsig.obj
 0003:00002798       g_pfnRtlGenRandom          0000000180015798     LIBCMT:rand_s.obj
 0003:000027c0       ?pfnMessageBox@?1??__crtMessageBoxW@@9@9 00000001800157c0     LIBCMT:crtmboxw.obj
 0003:000027c8       ?pfnGetActiveWindow@?1??__crtMessageBoxW@@9@9 00000001800157c8     LIBCMT:crtmboxw.obj
 0003:000027d0       ?pfnGetLastActivePopup@?1??__crtMessageBoxW@@9@9 00000001800157d0     LIBCMT:crtmboxw.obj
 0003:000027d8       ?pfnGetProcessWindowStation@?1??__crtMessageBoxW@@9@9 00000001800157d8     LIBCMT:crtmboxw.obj
 0003:000027e0       ?pfnGetUserObjectInformation@?1??__crtMessageBoxW@@9@9 00000001800157e0     LIBCMT:crtmboxw.obj
 0004:0000000c       $pdata$??0_LocaleUpdate@@QEAA@PEAUlocaleinfo_struct@@@Z 000000018001700c     LIBCMT:stricmp.obj
 0004:00000018       $pdata$_CRT_INIT           0000000180017018     LIBCMT:dllcrt0.obj
 0004:00000024       $pdata$_DllMainCRTStartup  0000000180017024     LIBCMT:dllcrt0.obj
 0004:00000030       $pdata$__DllMainCRTStartup 0000000180017030     LIBCMT:dllcrt0.obj
 0004:0000003c       $pdata$__raise_securityfailure 000000018001703c     LIBCMT:gs_report.obj
 0004:00000048       $pdata$__report_gsfailure  0000000180017048     LIBCMT:gs_report.obj
 0004:00000054       $pdata$_call_reportfault   0000000180017054     LIBCMT:invarg.obj
 0004:00000060       $pdata$_invalid_parameter  0000000180017060     LIBCMT:invarg.obj
 0004:0000006c       $pdata$_invalid_parameter_noinfo 000000018001706c     LIBCMT:invarg.obj
 0004:00000078       $pdata$_invoke_watson      0000000180017078     LIBCMT:invarg.obj
 0004:00000084       $pdata$__freetlocinfo      0000000180017084     LIBCMT:localref.obj
 0004:00000090       $pdata$__updatetlocinfo    0000000180017090     LIBCMT:localref.obj
 0004:0000009c       $pdata$_updatetlocinfoEx_nolock 000000018001709c     LIBCMT:localref.obj
 0004:000000a8       $pdata$__initmbctable      00000001800170a8     LIBCMT:mbctype.obj
 0004:000000b4       $pdata$?getSystemCP@@YAHH@Z 00000001800170b4     LIBCMT:mbctype.obj
 0004:000000c0       $pdata$?setSBCS@@YAXPEAUthreadmbcinfostruct@@@Z 00000001800170c0     LIBCMT:mbctype.obj
 0004:000000cc       $pdata$?setSBUpLow@@YAXPEAUthreadmbcinfostruct@@@Z 00000001800170cc     LIBCMT:mbctype.obj
 0004:000000d8       $pdata$__updatetmbcinfo    00000001800170d8     LIBCMT:mbctype.obj
 0004:000000e4       $pdata$_setmbcp            00000001800170e4     LIBCMT:mbctype.obj
 0004:000000f0       $pdata$_setmbcp_nolock     00000001800170f0     LIBCMT:mbctype.obj
 0004:000000fc       $pdata$_tolower_l          00000001800170fc     LIBCMT:tolower.obj
 0004:00000108       $pdata$_freefls            0000000180017108     LIBCMT:tidtable.obj
 0004:00000114       $pdata$_freeptd            0000000180017114     LIBCMT:tidtable.obj
 0004:00000120       $pdata$_getptd             0000000180017120     LIBCMT:tidtable.obj
 0004:0000012c       $pdata$_getptd_noexit      000000018001712c     LIBCMT:tidtable.obj
 0004:00000138       $pdata$_initptd            0000000180017138     LIBCMT:tidtable.obj
 0004:00000144       $pdata$_mtinit             0000000180017144     LIBCMT:tidtable.obj
 0004:00000150       $pdata$_mtterm             0000000180017150     LIBCMT:tidtable.obj
 0004:0000015c       $pdata$__doserrno          000000018001715c     LIBCMT:dosmap.obj
 0004:00000168       $pdata$_dosmaperr          0000000180017168     LIBCMT:dosmap.obj
 0004:00000174       $pdata$_errno              0000000180017174     LIBCMT:dosmap.obj
 0004:00000180       $pdata$_locterm            0000000180017180     LIBCMT:wsetloca.obj
 0004:0000018c       $pdata$_XcptFilter         000000018001718c     LIBCMT:winxfltr.obj
 0004:00000198       $pdata$__crtCorExitProcess 0000000180017198     LIBCMT:crt0dat.obj
 0004:000001a4       $pdata$__crtExitProcess    00000001800171a4     LIBCMT:crt0dat.obj
 0004:000001b0       $pdata$__freeCrtMemory     00000001800171b0     LIBCMT:crt0dat.obj
 0004:000001bc       $pdata$_amsg_exit          00000001800171bc     LIBCMT:crt0dat.obj
 0004:000001c8       $pdata$_cinit              00000001800171c8     LIBCMT:crt0dat.obj
 0004:000001d4       $pdata$_init_pointers      00000001800171d4     LIBCMT:crt0dat.obj
 0004:000001e0       $pdata$_initterm           00000001800171e0     LIBCMT:crt0dat.obj
 0004:000001ec       $pdata$_initterm_e         00000001800171ec     LIBCMT:crt0dat.obj
 0004:000001f8       $pdata$doexit              00000001800171f8     LIBCMT:crt0dat.obj
 0004:00000204       $pdata$_heap_init          0000000180017204     LIBCMT:heapinit.obj
 0004:00000210       $pdata$_ioinit             0000000180017210     LIBCMT:ioinit.obj
 0004:0000021c       $pdata$_ioterm             000000018001721c     LIBCMT:ioinit.obj
 0004:00000228       $pdata$_setargv            0000000180017228     LIBCMT:stdargv.obj
 0004:00000234       $pdata$parse_cmdline       0000000180017234     LIBCMT:stdargv.obj
 0004:00000240       $pdata$_setenvp            0000000180017240     LIBCMT:stdenvp.obj
 0004:0000024c       $pdata$free                000000018001724c     LIBCMT:free.obj
 0004:00000258       $pdata$__security_init_cookie 0000000180017258     LIBCMT:gs_support.obj
 0004:00000264       $pdata$__crtGetEnvironmentStringsA 0000000180017264     LIBCMT:a_env.obj
 0004:00000270       $pdata$__crtCaptureCurrentContext 0000000180017270     LIBCMT:winapisupp.obj
 0004:0000027c       $pdata$__crtCapturePreviousContext 000000018001727c     LIBCMT:winapisupp.obj
 0004:00000288       $pdata$__crtInitializeCriticalSectionEx 0000000180017288     LIBCMT:winapisupp.obj
 0004:00000294       $pdata$__crtIsPackagedApp  0000000180017294     LIBCMT:winapisupp.obj
 0004:000002a0       $pdata$__crtLoadWinApiPointers 00000001800172a0     LIBCMT:winapisupp.obj
 0004:000002ac       $pdata$__crtTerminateProcess 00000001800172ac     LIBCMT:winapisupp.obj
 0004:000002b8       $pdata$__crtUnhandledException 00000001800172b8     LIBCMT:winapisupp.obj
 0004:000002c4       $pdata$_calloc_crt         00000001800172c4     LIBCMT:crtheap.obj
 0004:000002d0       $pdata$_malloc_crt         00000001800172d0     LIBCMT:crtheap.obj
 0004:000002dc       $pdata$_realloc_crt        00000001800172dc     LIBCMT:crtheap.obj
 0004:000002e8       $pdata$_RTC_Initialize     00000001800172e8     LIBCMT:initsect.obj
 0004:000002f4       $pdata$_RTC_Terminate      00000001800172f4     LIBCMT:initsect.obj
 0004:00000300       $pdata$__C_specific_handler 0000000180017300     LIBCMT:chandler.obj
 0004:0000030c       $pdata$__GSHandlerCheck    000000018001730c     LIBCMT:gshandler.obj
 0004:00000318       $pdata$__GSHandlerCheckCommon 0000000180017318     LIBCMT:gshandler.obj
 0004:00000330       $pdata$_lock               0000000180017330     LIBCMT:mlock.obj
 0004:0000033c       $pdata$_mtdeletelocks      000000018001733c     LIBCMT:mlock.obj
 0004:00000348       $pdata$_mtinitlocknum      0000000180017348     LIBCMT:mlock.obj
 0004:00000354       $pdata$_mtinitlocks        0000000180017354     LIBCMT:mlock.obj
 0004:00000360       $pdata$__free_lconv_mon    0000000180017360     LIBCMT:initmon.obj
 0004:0000036c       $pdata$__free_lconv_num    000000018001736c     LIBCMT:initnum.obj
 0004:00000378       $pdata$__free_lc_time      0000000180017378     LIBCMT:inittime.obj
 0004:00000384       $pdata$?__crtLCMapStringA_stat@@YAHPEAUlocaleinfo_struct@@PEB_WKPEBDHPEADHHH@Z 0000000180017384     LIBCMT:a_map.obj
 0004:00000390       $pdata$__crtLCMapStringA   0000000180017390     LIBCMT:a_map.obj
 0004:0000039c       $pdata$?__crtGetStringTypeA_stat@@YAHPEAUlocaleinfo_struct@@KPEBDHPEAGHH@Z 000000018001739c     LIBCMT:a_str.obj
 0004:000003a8       $pdata$__crtGetStringTypeA 00000001800173a8     LIBCMT:a_str.obj
 0004:000003b4       $pdata$_isctype_l          00000001800173b4     LIBCMT:isctype.obj
 0004:000003c0       $pdata$_isleadbyte_l       00000001800173c0     LIBCMT:_wctype.obj
 0004:000003cc       $pdata$isleadbyte          00000001800173cc     LIBCMT:_wctype.obj
 0004:000003f0       $pdata$wcscat_s            00000001800173f0     LIBCMT:wcscat_s.obj
 0004:000003fc       $pdata$wcscpy_s            00000001800173fc     LIBCMT:wcscpy_s.obj
 0004:00000408       $pdata$wcsncpy_s           0000000180017408     LIBCMT:wcsncpy_s.obj
 0004:00000414       $pdata$GetTableIndexFromLocaleName 0000000180017414     LIBCMT:winapinls.obj
 0004:00000420       $pdata$__crtDownlevelLocaleNameToLCID 0000000180017420     LIBCMT:winapinls.obj
 0004:0000042c       $pdata$__crtLCMapStringEx  000000018001742c     LIBCMT:winapinls.obj
 0004:00000438       $pdata$_FF_MSGBANNER       0000000180017438     LIBCMT:crt0msg.obj
 0004:00000444       $pdata$_NMSG_WRITE         0000000180017444     LIBCMT:crt0msg.obj
 0004:00000450       $pdata$_IsNonwritableInCurrentImage 0000000180017450     LIBCMT:pesect.obj
 0004:0000045c       $pdata$__onexitinit        000000018001745c     LIBCMT:onexit.obj
 0004:00000468       $pdata$_onexit             0000000180017468     LIBCMT:onexit.obj
 0004:00000474       $pdata$atexit              0000000180017474     LIBCMT:onexit.obj
 0004:00000480       $pdata$_initp_misc_cfltcvt_tab 0000000180017480     LIBCMT:cmiscdat.obj
 0004:0000048c       $pdata$?terminate@@YAXXZ   000000018001748c     LIBCMT:hooks.obj
 0004:00000498       $pdata$_initp_eh_hooks     0000000180017498     LIBCMT:hooks.obj
 0004:000004a4       $pdata$_callnewh           00000001800174a4     LIBCMT:handler.obj
 0004:000004b0       $pdata$raise               00000001800174b0     LIBCMT:winsig.obj
 0004:000004ec       $pdata$__initstdio         00000001800174ec     LIBCMT:_file.obj
 0004:000004f8       $pdata$__endstdio          00000001800174f8     LIBCMT:_file.obj
 0004:00000504       $pdata$_lock_file          0000000180017504     LIBCMT:_file.obj
 0004:00000510       $pdata$_lock_file2         0000000180017510     LIBCMT:_file.obj
 0004:0000051c       $pdata$?x_ismbbtype_l@@YAHPEAUlocaleinfo_struct@@IHH@Z 000000018001751c     LIBCMT:ismbbyte.obj
 0004:00000528       $pdata$strcpy_s            0000000180017528     LIBCMT:strcpy_s.obj
 0004:00000540       $pdata$malloc              0000000180017540     LIBCMT:malloc.obj
 0004:0000054c       $pdata$realloc             000000018001754c     LIBCMT:realloc.obj
 0004:00000558       $pdata$_calloc_impl        0000000180017558     LIBCMT:calloc_impl.obj
 0004:00000564       $pdata$__isa_available_init 0000000180017564     LIBCMT:cpu_disp.obj
 0004:0000057c       $pdata$_set_error_mode     000000018001757c     LIBCMT:errmode.obj
 0004:00000588       $pdata$__crtMessageBoxW    0000000180017588     LIBCMT:crtmboxw.obj
 0004:00000594       $pdata$_msize              0000000180017594     LIBCMT:msize.obj
 0004:000005a0       $pdata$abort               00000001800175a0     LIBCMT:abort.obj
 0004:000005ac       $pdata$_fileno             00000001800175ac     LIBCMT:fileno.obj
 0004:000005b8       $pdata$_isatty             00000001800175b8     LIBCMT:isatty.obj
 0004:000005c4       $pdata$_fflush_nolock      00000001800175c4     LIBCMT:fflush.obj
 0004:000005d0       $pdata$_flush              00000001800175d0     LIBCMT:fflush.obj
 0004:000005dc       $pdata$flsall              00000001800175dc     LIBCMT:fflush.obj
 0004:000005e8       $pdata$_fcloseall          00000001800175e8     LIBCMT:closeall.obj
 0004:000005f4       $pdata$_commit             00000001800175f4     LIBCMT:commit.obj
 0004:00000600       $pdata$_write              0000000180017600     LIBCMT:write.obj
 0004:0000060c       $pdata$_write_nolock       000000018001760c     LIBCMT:write.obj
 0004:00000618       $pdata$_fclose_nolock      0000000180017618     LIBCMT:fclose.obj
 0004:00000624       $pdata$fclose              0000000180017624     LIBCMT:fclose.obj
 0004:00000630       $pdata$__crt_atoflt_l      0000000180017630     LIBCMT:atodbl.obj
 0004:0000063c       $pdata$_atodbl_l           000000018001763c     LIBCMT:atodbl.obj
 0004:00000648       $pdata$__lock_fhandle      0000000180017648     LIBCMT:osfinfo.obj
 0004:00000654       $pdata$_free_osfhnd        0000000180017654     LIBCMT:osfinfo.obj
 0004:00000660       $pdata$_get_osfhandle      0000000180017660     LIBCMT:osfinfo.obj
 0004:0000066c       $pdata$_lseeki64_nolock    000000018001766c     LIBCMT:lseeki64.obj
 0004:00000678       $pdata$_mbtowc_l           0000000180017678     LIBCMT:mbtowc.obj
 0004:00000684       $pdata$_putwch_nolock      0000000180017684     LIBCMT:putwch.obj
 0004:00000690       $pdata$_close              0000000180017690     LIBCMT:close.obj
 0004:0000069c       $pdata$_close_nolock       000000018001769c     LIBCMT:close.obj
 0004:000006a8       $pdata$_freebuf            00000001800176a8     LIBCMT:_freebuf.obj
 0004:000006b4       $pdata$_ld12tod            00000001800176b4     LIBCMT:intrncvt.obj
 0004:000006c0       $pdata$_ld12tof            00000001800176c0     LIBCMT:intrncvt.obj
 0004:000006cc       $pdata$__strgtold12_l      00000001800176cc     LIBCMT:strgtold.obj
 0004:000006d8       $pdata$_cfltcvt            00000001800176d8     LIBCMT:cvt.obj
 0004:000006e4       $pdata$_cfltcvt_l          00000001800176e4     LIBCMT:cvt.obj
 0004:000006f0       $pdata$_cftoa_l            00000001800176f0     LIBCMT:cvt.obj
 0004:000006fc       $pdata$_cftoe2_l           00000001800176fc     LIBCMT:cvt.obj
 0004:00000708       $pdata$_cftoe_l            0000000180017708     LIBCMT:cvt.obj
 0004:00000714       $pdata$_cftof2_l           0000000180017714     LIBCMT:cvt.obj
 0004:00000720       $pdata$_cftof_l            0000000180017720     LIBCMT:cvt.obj
 0004:0000072c       $pdata$_cftog_l            000000018001772c     LIBCMT:cvt.obj
 0004:00000738       $pdata$_cropzeros_l        0000000180017738     LIBCMT:cvt.obj
 0004:00000744       $pdata$_fassign_l          0000000180017744     LIBCMT:cvt.obj
 0004:00000750       $pdata$_forcdecpt_l        0000000180017750     LIBCMT:cvt.obj
 0004:0000075c       $pdata$__termconout        000000018001775c     LIBCMT:initcon.obj
 0004:00000768       $pdata$__initconout        0000000180017768     LIBCMT:initcon.obj
 0004:00000774       $pdata$__mtold12           0000000180017774     LIBCMT:mantold.obj
 0004:00000780       $pdata$isdigit             0000000180017780     LIBCMT:_ctype.obj
 0004:0000078c       $pdata$strrchr             000000018001778c     LIBCMT:strrchr.obj
 0004:00000798       $pdata$_fptostr            0000000180017798     LIBCMT:_fptostr.obj
 0004:000007a4       $pdata$__dtold             00000001800177a4     LIBCMT:cfout.obj
 0004:000007b0       $pdata$_fltout2            00000001800177b0     LIBCMT:cfout.obj
 0004:000007bc       $pdata$$I10_OUTPUT         00000001800177bc     LIBCMT:x10fout.obj
 0004:000007c8       $pdata$_CRT_INIT$fin$0     00000001800177c8     LIBCMT:dllcrt0.obj
 0004:000007d4       $pdata$__DllMainCRTStartup$filt$0 00000001800177d4     LIBCMT:dllcrt0.obj
 0004:000007e0       $pdata$__updatetmbcinfo$fin$0 00000001800177e0     LIBCMT:mbctype.obj
 0004:000007e0       $pdata$_setmbcp$fin$0      00000001800177e0     LIBCMT:mbctype.obj
 0004:000007ec       $pdata$_freefls$fin$1      00000001800177ec     LIBCMT:tidtable.obj
 0004:000007ec       $pdata$_initptd$fin$1      00000001800177ec     LIBCMT:tidtable.obj
 0004:000007f8       $pdata$_freefls$fin$0      00000001800177f8     LIBCMT:tidtable.obj
 0004:000007f8       $pdata$_initptd$fin$0      00000001800177f8     LIBCMT:tidtable.obj
 0004:00000804       $pdata$_locterm$fin$0      0000000180017804     LIBCMT:wsetloca.obj
 0004:00000804       $pdata$__updatetlocinfo$fin$0 0000000180017804     LIBCMT:wsetloca.obj
 0004:00000810       $pdata$doexit$fin$0        0000000180017810     LIBCMT:crt0dat.obj
 0004:0000081c       $pdata$_ioinit$fin$0       000000018001781c     LIBCMT:ioinit.obj
 0004:00000828       $pdata$_mtinitlocknum$fin$0 0000000180017828     LIBCMT:mlock.obj
 0004:00000834       $pdata$_IsNonwritableInCurrentImage$filt$0 0000000180017834     LIBCMT:pesect.obj
 0004:00000840       $pdata$_onexit$fin$0       0000000180017840     LIBCMT:onexit.obj
 0004:0000084c       $pdata$raise$fin$0         000000018001784c     LIBCMT:winsig.obj
 0004:00000858       $pdata$flsall$fin$0        0000000180017858     LIBCMT:fflush.obj
 0004:00000864       $pdata$flsall$fin$1        0000000180017864     LIBCMT:fflush.obj
 0004:00000870       $pdata$_fcloseall$fin$0    0000000180017870     LIBCMT:closeall.obj
 0004:0000087c       $pdata$_write$fin$0        000000018001787c     LIBCMT:write.obj
 0004:00000888       $pdata$fclose$fin$0        0000000180017888     LIBCMT:fclose.obj
 0004:00000894       $pdata$__lock_fhandle$fin$0 0000000180017894     LIBCMT:osfinfo.obj
 0004:000008a0       $pdata$_close$fin$0        00000001800178a0     LIBCMT:close.obj
 0004:000008a0       $pdata$_commit$fin$0       00000001800178a0     LIBCMT:close.obj
 0005:00000060       $R000000                   0000000180018060     * linker generated manifest res *

 Exports

  ordinal    name

